; ModuleID = 'permute.ll'
source_filename = "permute.cpp"
target datalayout = "e-m:e-p270:32:32-p271:32:32-p272:64:64-i64:64-f80:128-n8:16:32:64-S128"
target triple = "x86_64-pc-linux-gnu"

%"class.std::ios_base::Init" = type { i8 }
%"class.std::basic_istream" = type { i32 (...)**, i64, %"class.std::basic_ios" }
%"class.std::basic_ios" = type { %"class.std::ios_base", %"class.std::basic_ostream"*, i8, i8, %"class.std::basic_streambuf"*, %"class.std::ctype"*, %"class.std::num_put"*, %"class.std::num_get"* }
%"class.std::ios_base" = type { i32 (...)**, i64, i64, i32, i32, i32, %"struct.std::ios_base::_Callback_list"*, %"struct.std::ios_base::_Words", [8 x %"struct.std::ios_base::_Words"], i32, %"struct.std::ios_base::_Words"*, %"class.std::locale" }
%"struct.std::ios_base::_Callback_list" = type { %"struct.std::ios_base::_Callback_list"*, void (i32, %"class.std::ios_base"*, i32)*, i32, i32 }
%"struct.std::ios_base::_Words" = type { i8*, i64 }
%"class.std::locale" = type { %"class.std::locale::_Impl"* }
%"class.std::locale::_Impl" = type { i32, %"class.std::locale::facet"**, i64, %"class.std::locale::facet"**, i8** }
%"class.std::locale::facet" = type <{ i32 (...)**, i32, [4 x i8] }>
%"class.std::basic_ostream" = type { i32 (...)**, %"class.std::basic_ios" }
%"class.std::basic_streambuf" = type { i32 (...)**, i8*, i8*, i8*, i8*, i8*, i8*, %"class.std::locale" }
%"class.std::ctype" = type <{ %"class.std::locale::facet.base", [4 x i8], %struct.__locale_struct*, i8, [7 x i8], i32*, i32*, i16*, i8, [256 x i8], [256 x i8], i8, [6 x i8] }>
%"class.std::locale::facet.base" = type <{ i32 (...)**, i32 }>
%struct.__locale_struct = type { [13 x %struct.__locale_data*], i16*, i32*, i32*, [13 x i8*] }
%struct.__locale_data = type opaque
%"class.std::num_put" = type { %"class.std::locale::facet.base", [4 x i8] }
%"class.std::num_get" = type { %"class.std::locale::facet.base", [4 x i8] }
%"class.std::vector" = type { %"struct.std::_Vector_base" }
%"struct.std::_Vector_base" = type { %"struct.std::_Vector_base<int, std::allocator<int>>::_Vector_impl" }
%"struct.std::_Vector_base<int, std::allocator<int>>::_Vector_impl" = type { %"struct.std::_Vector_base<int, std::allocator<int>>::_Vector_impl_data" }
%"struct.std::_Vector_base<int, std::allocator<int>>::_Vector_impl_data" = type { i32*, i32*, i32* }
%"class.std::reverse_iterator" = type { %"class.__gnu_cxx::__normal_iterator" }
%"class.__gnu_cxx::__normal_iterator" = type { i32* }
%"struct.std::iterator" = type { i8 }
%"class.std::allocator" = type { i8 }
%"class.__gnu_cxx::__normal_iterator.0" = type { i32* }
%"class.__gnu_cxx::new_allocator" = type { i8 }
%"struct.__gnu_cxx::__ops::_Iter_less_iter" = type { i8 }
%"struct.std::random_access_iterator_tag" = type { i8 }
%"struct.__gnu_cxx::__ops::_Val_less_iter" = type { i8 }

$_ZSt15is_sorted_untilISt16reverse_iteratorIN9__gnu_cxx17__normal_iteratorIPiSt6vectorIiSaIiEEEEEET_S9_S9_ = comdat any

$_ZNSt6vectorIiSaIiEE6rbeginEv = comdat any

$_ZNSt6vectorIiSaIiEE4rendEv = comdat any

$_ZSteqIN9__gnu_cxx17__normal_iteratorIPiSt6vectorIiSaIiEEEEEbRKSt16reverse_iteratorIT_ESB_ = comdat any

$_ZSt7reverseISt16reverse_iteratorIN9__gnu_cxx17__normal_iteratorIPiSt6vectorIiSaIiEEEEEEvT_S9_ = comdat any

$_ZSt11upper_boundISt16reverse_iteratorIN9__gnu_cxx17__normal_iteratorIPiSt6vectorIiSaIiEEEEEiET_S9_S9_RKT0_ = comdat any

$_ZNSt16reverse_iteratorIN9__gnu_cxx17__normal_iteratorIPiSt6vectorIiSaIiEEEEEC2ERKS7_ = comdat any

$_ZNKSt16reverse_iteratorIN9__gnu_cxx17__normal_iteratorIPiSt6vectorIiSaIiEEEEEdeEv = comdat any

$_ZSt4swapIiENSt9enable_ifIXsr6__and_ISt6__not_ISt15__is_tuple_likeIT_EESt21is_move_constructibleIS3_ESt18is_move_assignableIS3_EEE5valueEvE4typeERS3_SC_ = comdat any

$_ZNSt6vectorIiSaIiEEC2ERKS1_ = comdat any

$_ZNSaIiEC2Ev = comdat any

$_ZNSt6vectorIiSaIiEEC2EmRKS0_ = comdat any

$_ZNSaIiED2Ev = comdat any

$_ZNSt6vectorIiSaIiEEixEm = comdat any

$_ZNSt6vectorIiSaIiEE5beginEv = comdat any

$_ZNSt6vectorIiSaIiEE3endEv = comdat any

$_ZN9__gnu_cxxneIPiSt6vectorIiSaIiEEEEbRKNS_17__normal_iteratorIT_T0_EESA_ = comdat any

$_ZNK9__gnu_cxx17__normal_iteratorIPiSt6vectorIiSaIiEEEdeEv = comdat any

$_ZN9__gnu_cxx17__normal_iteratorIPiSt6vectorIiSaIiEEEppEv = comdat any

$_ZNSt6vectorIiSaIiEED2Ev = comdat any

$_ZN9__gnu_cxx13new_allocatorIiEC2Ev = comdat any

$_ZN9__gnu_cxx13new_allocatorIiED2Ev = comdat any

$_ZNSt16reverse_iteratorIN9__gnu_cxx17__normal_iteratorIPiSt6vectorIiSaIiEEEEEC2ES6_ = comdat any

$__clang_call_terminate = comdat any

$_ZSt17__is_sorted_untilISt16reverse_iteratorIN9__gnu_cxx17__normal_iteratorIPiSt6vectorIiSaIiEEEEENS1_5__ops15_Iter_less_iterEET_SB_SB_T0_ = comdat any

$_ZN9__gnu_cxx5__ops16__iter_less_iterEv = comdat any

$_ZNSt16reverse_iteratorIN9__gnu_cxx17__normal_iteratorIPiSt6vectorIiSaIiEEEEEppEv = comdat any

$_ZStneIN9__gnu_cxx17__normal_iteratorIPiSt6vectorIiSaIiEEEEEbRKSt16reverse_iteratorIT_ESB_ = comdat any

$_ZNK9__gnu_cxx5__ops15_Iter_less_iterclISt16reverse_iteratorINS_17__normal_iteratorIPiSt6vectorIiSaIiEEEEESA_EEbT_T0_ = comdat any

$_ZN9__gnu_cxx17__normal_iteratorIPiSt6vectorIiSaIiEEEmmEv = comdat any

$_ZN9__gnu_cxxeqIPiSt6vectorIiSaIiEEEEbRKNS_17__normal_iteratorIT_T0_EESA_ = comdat any

$_ZNKSt16reverse_iteratorIN9__gnu_cxx17__normal_iteratorIPiSt6vectorIiSaIiEEEEE4baseEv = comdat any

$_ZNK9__gnu_cxx17__normal_iteratorIPiSt6vectorIiSaIiEEE4baseEv = comdat any

$_ZSt9__reverseISt16reverse_iteratorIN9__gnu_cxx17__normal_iteratorIPiSt6vectorIiSaIiEEEEEEvT_S9_St26random_access_iterator_tag = comdat any

$_ZSt19__iterator_categoryISt16reverse_iteratorIN9__gnu_cxx17__normal_iteratorIPiSt6vectorIiSaIiEEEEEENSt15iterator_traitsIT_E17iterator_categoryERKSA_ = comdat any

$_ZNSt16reverse_iteratorIN9__gnu_cxx17__normal_iteratorIPiSt6vectorIiSaIiEEEEEmmEv = comdat any

$_ZStltIN9__gnu_cxx17__normal_iteratorIPiSt6vectorIiSaIiEEEEEbRKSt16reverse_iteratorIT_ESB_ = comdat any

$_ZSt9iter_swapISt16reverse_iteratorIN9__gnu_cxx17__normal_iteratorIPiSt6vectorIiSaIiEEEEES8_EvT_T0_ = comdat any

$_ZN9__gnu_cxxltIPiSt6vectorIiSaIiEEEEbRKNS_17__normal_iteratorIT_T0_EESA_ = comdat any

$_ZSt13__upper_boundISt16reverse_iteratorIN9__gnu_cxx17__normal_iteratorIPiSt6vectorIiSaIiEEEEEiNS1_5__ops14_Val_less_iterEET_SB_SB_RKT0_T1_ = comdat any

$_ZN9__gnu_cxx5__ops15__val_less_iterEv = comdat any

$_ZSt8distanceISt16reverse_iteratorIN9__gnu_cxx17__normal_iteratorIPiSt6vectorIiSaIiEEEEEENSt15iterator_traitsIT_E15difference_typeESA_SA_ = comdat any

$_ZSt7advanceISt16reverse_iteratorIN9__gnu_cxx17__normal_iteratorIPiSt6vectorIiSaIiEEEEElEvRT_T0_ = comdat any

$_ZNK9__gnu_cxx5__ops14_Val_less_iterclIKiSt16reverse_iteratorINS_17__normal_iteratorIPiSt6vectorIiSaIiEEEEEEEbRT_T0_ = comdat any

$_ZSt10__distanceISt16reverse_iteratorIN9__gnu_cxx17__normal_iteratorIPiSt6vectorIiSaIiEEEEEENSt15iterator_traitsIT_E15difference_typeESA_SA_St26random_access_iterator_tag = comdat any

$_ZStmiIN9__gnu_cxx17__normal_iteratorIPiSt6vectorIiSaIiEEEES6_EDTmicldtfp0_4baseEcldtfp_4baseEERKSt16reverse_iteratorIT_ERKS8_IT0_E = comdat any

$_ZN9__gnu_cxxmiIPiSt6vectorIiSaIiEEEENS_17__normal_iteratorIT_T0_E15difference_typeERKS8_SB_ = comdat any

$_ZSt9__advanceISt16reverse_iteratorIN9__gnu_cxx17__normal_iteratorIPiSt6vectorIiSaIiEEEEElEvRT_T0_St26random_access_iterator_tag = comdat any

$_ZNSt16reverse_iteratorIN9__gnu_cxx17__normal_iteratorIPiSt6vectorIiSaIiEEEEEpLEl = comdat any

$_ZN9__gnu_cxx17__normal_iteratorIPiSt6vectorIiSaIiEEEmIEl = comdat any

$_ZSt4moveIRiEONSt16remove_referenceIT_E4typeEOS2_ = comdat any

$_ZNKSt6vectorIiSaIiEE4sizeEv = comdat any

$_ZN9__gnu_cxx14__alloc_traitsISaIiEiE17_S_select_on_copyERKS1_ = comdat any

$_ZNKSt12_Vector_baseIiSaIiEE19_M_get_Tp_allocatorEv = comdat any

$_ZNSt12_Vector_baseIiSaIiEEC2EmRKS0_ = comdat any

$_ZSt22__uninitialized_copy_aIN9__gnu_cxx17__normal_iteratorIPKiSt6vectorIiSaIiEEEEPiiET0_T_SA_S9_RSaIT1_E = comdat any

$_ZNKSt6vectorIiSaIiEE5beginEv = comdat any

$_ZNKSt6vectorIiSaIiEE3endEv = comdat any

$_ZNSt12_Vector_baseIiSaIiEE19_M_get_Tp_allocatorEv = comdat any

$_ZNSt12_Vector_baseIiSaIiEED2Ev = comdat any

$_ZNSt16allocator_traitsISaIiEE37select_on_container_copy_constructionERKS0_ = comdat any

$_ZNSaIiEC2ERKS_ = comdat any

$_ZN9__gnu_cxx13new_allocatorIiEC2ERKS1_ = comdat any

$_ZNSt12_Vector_baseIiSaIiEE12_Vector_implC2ERKS0_ = comdat any

$_ZNSt12_Vector_baseIiSaIiEE17_M_create_storageEm = comdat any

$_ZNSt12_Vector_baseIiSaIiEE12_Vector_implD2Ev = comdat any

$_ZNSt12_Vector_baseIiSaIiEE17_Vector_impl_dataC2Ev = comdat any

$_ZNSt12_Vector_baseIiSaIiEE11_M_allocateEm = comdat any

$_ZNSt16allocator_traitsISaIiEE8allocateERS0_m = comdat any

$_ZN9__gnu_cxx13new_allocatorIiE8allocateEmPKv = comdat any

$_ZNK9__gnu_cxx13new_allocatorIiE11_M_max_sizeEv = comdat any

$_ZSt18uninitialized_copyIN9__gnu_cxx17__normal_iteratorIPKiSt6vectorIiSaIiEEEEPiET0_T_SA_S9_ = comdat any

$_ZNSt20__uninitialized_copyILb1EE13__uninit_copyIN9__gnu_cxx17__normal_iteratorIPKiSt6vectorIiSaIiEEEEPiEET0_T_SC_SB_ = comdat any

$_ZSt4copyIN9__gnu_cxx17__normal_iteratorIPKiSt6vectorIiSaIiEEEEPiET0_T_SA_S9_ = comdat any

$_ZSt13__copy_move_aILb0EN9__gnu_cxx17__normal_iteratorIPKiSt6vectorIiSaIiEEEEPiET1_T0_SA_S9_ = comdat any

$_ZSt12__miter_baseIN9__gnu_cxx17__normal_iteratorIPKiSt6vectorIiSaIiEEEEET_S8_ = comdat any

$_ZSt12__niter_wrapIPiET_RKS1_S1_ = comdat any

$_ZSt14__copy_move_a1ILb0EPKiPiET1_T0_S4_S3_ = comdat any

$_ZSt12__niter_baseIPKiSt6vectorIiSaIiEEET_N9__gnu_cxx17__normal_iteratorIS5_T0_EE = comdat any

$_ZSt12__niter_baseIPiET_S1_ = comdat any

$_ZSt14__copy_move_a2ILb0EPKiPiET1_T0_S4_S3_ = comdat any

$_ZNSt11__copy_moveILb0ELb1ESt26random_access_iterator_tagE8__copy_mIiEEPT_PKS3_S6_S4_ = comdat any

$_ZNK9__gnu_cxx17__normal_iteratorIPKiSt6vectorIiSaIiEEE4baseEv = comdat any

$_ZN9__gnu_cxx17__normal_iteratorIPKiSt6vectorIiSaIiEEEC2ERKS2_ = comdat any

$_ZNSt12_Vector_baseIiSaIiEE13_M_deallocateEPim = comdat any

$_ZNSt16allocator_traitsISaIiEE10deallocateERS0_Pim = comdat any

$_ZN9__gnu_cxx13new_allocatorIiE10deallocateEPim = comdat any

$_ZNSt6vectorIiSaIiEE17_S_check_init_lenEmRKS0_ = comdat any

$_ZNSt6vectorIiSaIiEE21_M_default_initializeEm = comdat any

$_ZNSt6vectorIiSaIiEE11_S_max_sizeERKS0_ = comdat any

$_ZNSt16allocator_traitsISaIiEE8max_sizeERKS0_ = comdat any

$_ZSt3minImERKT_S2_S2_ = comdat any

$_ZNK9__gnu_cxx13new_allocatorIiE8max_sizeEv = comdat any

$_ZSt27__uninitialized_default_n_aIPimiET_S1_T0_RSaIT1_E = comdat any

$_ZSt25__uninitialized_default_nIPimET_S1_T0_ = comdat any

$_ZNSt27__uninitialized_default_n_1ILb1EE18__uninit_default_nIPimEET_S3_T0_ = comdat any

$_ZSt11__addressofIiEPT_RS0_ = comdat any

$_ZSt10_ConstructIiJEEvPT_DpOT0_ = comdat any

$_ZSt6fill_nIPimiET_S1_T0_RKT1_ = comdat any

$_ZSt10__fill_n_aIPimiET_S1_T0_RKT1_St26random_access_iterator_tag = comdat any

$_ZSt17__size_to_integerm = comdat any

$_ZSt19__iterator_categoryIPiENSt15iterator_traitsIT_E17iterator_categoryERKS2_ = comdat any

$_ZSt8__fill_aIPiiEvT_S1_RKT0_ = comdat any

$_ZSt9__fill_a1IPiiEN9__gnu_cxx11__enable_ifIXsr11__is_scalarIT0_EE7__valueEvE6__typeET_S6_RKS3_ = comdat any

$_ZSt8_DestroyIPiiEvT_S1_RSaIT0_E = comdat any

$_ZSt8_DestroyIPiEvT_S1_ = comdat any

$_ZNSt12_Destroy_auxILb1EE9__destroyIPiEEvT_S3_ = comdat any

$_ZN9__gnu_cxx17__normal_iteratorIPiSt6vectorIiSaIiEEEC2ERKS1_ = comdat any

@_ZStL8__ioinit = internal global %"class.std::ios_base::Init" zeroinitializer, align 1, !dbg !0
@__dso_handle = external hidden global i8
@_ZSt3cin = external global %"class.std::basic_istream", align 8
@_ZSt4cout = external global %"class.std::basic_ostream", align 8
@.str = private unnamed_addr constant [2 x i8] c" \00", align 1
@.str.1 = private unnamed_addr constant [49 x i8] c"cannot create std::vector larger than max_size()\00", align 1
@llvm.global_ctors = appending global [1 x { i32, void ()*, i8* }] [{ i32, void ()*, i8* } { i32 65535, void ()* @_GLOBAL__sub_I_permute.cpp, i8* null }]

; Function Attrs: noinline uwtable
define internal void @__cxx_global_var_init() #0 section ".text.startup" !dbg !2192 {
entry:
  call void @_ZNSt8ios_base4InitC1Ev(%"class.std::ios_base::Init"* noundef nonnull align 1 dereferenceable(1) @_ZStL8__ioinit), !dbg !2193
  %i = call i32 @__cxa_atexit(void (i8*)* bitcast (void (%"class.std::ios_base::Init"*)* @_ZNSt8ios_base4InitD1Ev to void (i8*)*), i8* getelementptr inbounds (%"class.std::ios_base::Init", %"class.std::ios_base::Init"* @_ZStL8__ioinit, i32 0, i32 0), i8* @__dso_handle) #3, !dbg !2195
  ret void, !dbg !2193
}

declare void @_ZNSt8ios_base4InitC1Ev(%"class.std::ios_base::Init"* noundef nonnull align 1 dereferenceable(1)) unnamed_addr #1

; Function Attrs: nounwind
declare void @_ZNSt8ios_base4InitD1Ev(%"class.std::ios_base::Init"* noundef nonnull align 1 dereferenceable(1)) unnamed_addr #2

; Function Attrs: nounwind
declare i32 @__cxa_atexit(void (i8*)*, i8*, i8*) #3

; Function Attrs: mustprogress noinline uwtable
define dso_local void @_Z15nextPermutationRSt6vectorIiSaIiEEi(%"class.std::vector"* noalias sret(%"class.std::vector") align 8 %agg.result, %"class.std::vector"* noundef nonnull align 8 dereferenceable(24) %permutation, i32 noundef %n) #4 !dbg !2196 {
entry:
  %it = alloca %"class.std::reverse_iterator", align 8
  %agg.tmp = alloca %"class.std::reverse_iterator", align 8
  %agg.tmp1 = alloca %"class.std::reverse_iterator", align 8
  %ref.tmp = alloca %"class.std::reverse_iterator", align 8
  %agg.tmp2 = alloca %"class.std::reverse_iterator", align 8
  %agg.tmp3 = alloca %"class.std::reverse_iterator", align 8
  %next = alloca %"class.std::reverse_iterator", align 8
  %agg.tmp4 = alloca %"class.std::reverse_iterator", align 8
  %agg.tmp5 = alloca %"class.std::reverse_iterator", align 8
  %agg.tmp9 = alloca %"class.std::reverse_iterator", align 8
  %agg.tmp10 = alloca %"class.std::reverse_iterator", align 8
  %i = bitcast %"class.std::vector"* %agg.result to i8*
  call void @llvm.dbg.value(metadata %"class.std::vector"* %permutation, metadata !2199, metadata !DIExpression()), !dbg !2200
  call void @llvm.dbg.value(metadata i32 %n, metadata !2201, metadata !DIExpression()), !dbg !2200
  call void @llvm.dbg.declare(metadata %"class.std::reverse_iterator"* %it, metadata !2202, metadata !DIExpression()), !dbg !2203
  call void @_ZNSt6vectorIiSaIiEE6rbeginEv(%"class.std::reverse_iterator"* sret(%"class.std::reverse_iterator") align 8 %agg.tmp, %"class.std::vector"* noundef nonnull align 8 dereferenceable(24) %permutation) #3, !dbg !2204
  call void @_ZNSt6vectorIiSaIiEE4rendEv(%"class.std::reverse_iterator"* sret(%"class.std::reverse_iterator") align 8 %agg.tmp1, %"class.std::vector"* noundef nonnull align 8 dereferenceable(24) %permutation) #3, !dbg !2205
  call void @_ZSt15is_sorted_untilISt16reverse_iteratorIN9__gnu_cxx17__normal_iteratorIPiSt6vectorIiSaIiEEEEEET_S9_S9_(%"class.std::reverse_iterator"* sret(%"class.std::reverse_iterator") align 8 %it, %"class.std::reverse_iterator"* noundef %agg.tmp, %"class.std::reverse_iterator"* noundef %agg.tmp1), !dbg !2206
  call void @_ZNSt6vectorIiSaIiEE4rendEv(%"class.std::reverse_iterator"* sret(%"class.std::reverse_iterator") align 8 %ref.tmp, %"class.std::vector"* noundef nonnull align 8 dereferenceable(24) %permutation) #3, !dbg !2207
  %call = call noundef zeroext i1 @_ZSteqIN9__gnu_cxx17__normal_iteratorIPiSt6vectorIiSaIiEEEEEbRKSt16reverse_iteratorIT_ESB_(%"class.std::reverse_iterator"* noundef nonnull align 8 dereferenceable(8) %ref.tmp, %"class.std::reverse_iterator"* noundef nonnull align 8 dereferenceable(8) %it), !dbg !2209
  br i1 %call, label %if.then, label %if.else, !dbg !2210

if.then:                                          ; preds = %entry
  call void @_ZNSt6vectorIiSaIiEE6rbeginEv(%"class.std::reverse_iterator"* sret(%"class.std::reverse_iterator") align 8 %agg.tmp2, %"class.std::vector"* noundef nonnull align 8 dereferenceable(24) %permutation) #3, !dbg !2211
  call void @_ZNSt6vectorIiSaIiEE4rendEv(%"class.std::reverse_iterator"* sret(%"class.std::reverse_iterator") align 8 %agg.tmp3, %"class.std::vector"* noundef nonnull align 8 dereferenceable(24) %permutation) #3, !dbg !2213
  call void @_ZSt7reverseISt16reverse_iteratorIN9__gnu_cxx17__normal_iteratorIPiSt6vectorIiSaIiEEEEEEvT_S9_(%"class.std::reverse_iterator"* noundef %agg.tmp2, %"class.std::reverse_iterator"* noundef %agg.tmp3), !dbg !2214
  br label %if.end, !dbg !2215

if.else:                                          ; preds = %entry
  call void @llvm.dbg.declare(metadata %"class.std::reverse_iterator"* %next, metadata !2216, metadata !DIExpression()), !dbg !2218
  call void @_ZNSt6vectorIiSaIiEE6rbeginEv(%"class.std::reverse_iterator"* sret(%"class.std::reverse_iterator") align 8 %agg.tmp4, %"class.std::vector"* noundef nonnull align 8 dereferenceable(24) %permutation) #3, !dbg !2219
  call void @_ZNSt16reverse_iteratorIN9__gnu_cxx17__normal_iteratorIPiSt6vectorIiSaIiEEEEEC2ERKS7_(%"class.std::reverse_iterator"* noundef nonnull align 8 dereferenceable(8) %agg.tmp5, %"class.std::reverse_iterator"* noundef nonnull align 8 dereferenceable(8) %it), !dbg !2220
  %call6 = call noundef nonnull align 4 dereferenceable(4) i32* @_ZNKSt16reverse_iteratorIN9__gnu_cxx17__normal_iteratorIPiSt6vectorIiSaIiEEEEEdeEv(%"class.std::reverse_iterator"* noundef nonnull align 8 dereferenceable(8) %it), !dbg !2221
  call void @_ZSt11upper_boundISt16reverse_iteratorIN9__gnu_cxx17__normal_iteratorIPiSt6vectorIiSaIiEEEEEiET_S9_S9_RKT0_(%"class.std::reverse_iterator"* sret(%"class.std::reverse_iterator") align 8 %next, %"class.std::reverse_iterator"* noundef %agg.tmp4, %"class.std::reverse_iterator"* noundef %agg.tmp5, i32* noundef nonnull align 4 dereferenceable(4) %call6), !dbg !2222
  %call7 = call noundef nonnull align 4 dereferenceable(4) i32* @_ZNKSt16reverse_iteratorIN9__gnu_cxx17__normal_iteratorIPiSt6vectorIiSaIiEEEEEdeEv(%"class.std::reverse_iterator"* noundef nonnull align 8 dereferenceable(8) %it), !dbg !2223
  %call8 = call noundef nonnull align 4 dereferenceable(4) i32* @_ZNKSt16reverse_iteratorIN9__gnu_cxx17__normal_iteratorIPiSt6vectorIiSaIiEEEEEdeEv(%"class.std::reverse_iterator"* noundef nonnull align 8 dereferenceable(8) %next), !dbg !2224
  call void @_ZSt4swapIiENSt9enable_ifIXsr6__and_ISt6__not_ISt15__is_tuple_likeIT_EESt21is_move_constructibleIS3_ESt18is_move_assignableIS3_EEE5valueEvE4typeERS3_SC_(i32* noundef nonnull align 4 dereferenceable(4) %call7, i32* noundef nonnull align 4 dereferenceable(4) %call8) #3, !dbg !2225
  call void @_ZNSt6vectorIiSaIiEE6rbeginEv(%"class.std::reverse_iterator"* sret(%"class.std::reverse_iterator") align 8 %agg.tmp9, %"class.std::vector"* noundef nonnull align 8 dereferenceable(24) %permutation) #3, !dbg !2226
  call void @_ZNSt16reverse_iteratorIN9__gnu_cxx17__normal_iteratorIPiSt6vectorIiSaIiEEEEEC2ERKS7_(%"class.std::reverse_iterator"* noundef nonnull align 8 dereferenceable(8) %agg.tmp10, %"class.std::reverse_iterator"* noundef nonnull align 8 dereferenceable(8) %it), !dbg !2227
  call void @_ZSt7reverseISt16reverse_iteratorIN9__gnu_cxx17__normal_iteratorIPiSt6vectorIiSaIiEEEEEEvT_S9_(%"class.std::reverse_iterator"* noundef %agg.tmp9, %"class.std::reverse_iterator"* noundef %agg.tmp10), !dbg !2228
  br label %if.end

if.end:                                           ; preds = %if.else, %if.then
  call void @_ZNSt6vectorIiSaIiEEC2ERKS1_(%"class.std::vector"* noundef nonnull align 8 dereferenceable(24) %agg.result, %"class.std::vector"* noundef nonnull align 8 dereferenceable(24) %permutation), !dbg !2229
  ret void, !dbg !2230
}

; Function Attrs: nofree nosync nounwind readnone speculatable willreturn
declare void @llvm.dbg.declare(metadata, metadata, metadata) #5

; Function Attrs: mustprogress noinline uwtable
define linkonce_odr dso_local void @_ZSt15is_sorted_untilISt16reverse_iteratorIN9__gnu_cxx17__normal_iteratorIPiSt6vectorIiSaIiEEEEEET_S9_S9_(%"class.std::reverse_iterator"* noalias sret(%"class.std::reverse_iterator") align 8 %agg.result, %"class.std::reverse_iterator"* noundef %__first, %"class.std::reverse_iterator"* noundef %__last) #4 comdat !dbg !2231 {
entry:
  %agg.tmp = alloca %"class.std::reverse_iterator", align 8
  %agg.tmp1 = alloca %"class.std::reverse_iterator", align 8
  %i = bitcast %"class.std::reverse_iterator"* %agg.result to i8*
  call void @llvm.dbg.declare(metadata %"class.std::reverse_iterator"* %__first, metadata !2237, metadata !DIExpression()), !dbg !2238
  call void @llvm.dbg.declare(metadata %"class.std::reverse_iterator"* %__last, metadata !2239, metadata !DIExpression()), !dbg !2240
  call void @_ZNSt16reverse_iteratorIN9__gnu_cxx17__normal_iteratorIPiSt6vectorIiSaIiEEEEEC2ERKS7_(%"class.std::reverse_iterator"* noundef nonnull align 8 dereferenceable(8) %agg.tmp, %"class.std::reverse_iterator"* noundef nonnull align 8 dereferenceable(8) %__first), !dbg !2241
  call void @_ZNSt16reverse_iteratorIN9__gnu_cxx17__normal_iteratorIPiSt6vectorIiSaIiEEEEEC2ERKS7_(%"class.std::reverse_iterator"* noundef nonnull align 8 dereferenceable(8) %agg.tmp1, %"class.std::reverse_iterator"* noundef nonnull align 8 dereferenceable(8) %__last), !dbg !2242
  call void @_ZN9__gnu_cxx5__ops16__iter_less_iterEv(), !dbg !2243
  call void @_ZSt17__is_sorted_untilISt16reverse_iteratorIN9__gnu_cxx17__normal_iteratorIPiSt6vectorIiSaIiEEEEENS1_5__ops15_Iter_less_iterEET_SB_SB_T0_(%"class.std::reverse_iterator"* sret(%"class.std::reverse_iterator") align 8 %agg.result, %"class.std::reverse_iterator"* noundef %agg.tmp, %"class.std::reverse_iterator"* noundef %agg.tmp1), !dbg !2244
  ret void, !dbg !2245
}

; Function Attrs: mustprogress noinline nounwind uwtable
define linkonce_odr dso_local void @_ZNSt6vectorIiSaIiEE6rbeginEv(%"class.std::reverse_iterator"* noalias sret(%"class.std::reverse_iterator") align 8 %agg.result, %"class.std::vector"* noundef nonnull align 8 dereferenceable(24) %this) #6 comdat align 2 personality i8* bitcast (i32 (...)* @__gxx_personality_v0 to i8*) !dbg !2246 {
entry:
  %agg.tmp = alloca %"class.__gnu_cxx::__normal_iterator", align 8
  %i = bitcast %"class.std::reverse_iterator"* %agg.result to i8*
  call void @llvm.dbg.value(metadata %"class.std::vector"* %this, metadata !2247, metadata !DIExpression()), !dbg !2249
  %call = call i32* @_ZNSt6vectorIiSaIiEE3endEv(%"class.std::vector"* noundef nonnull align 8 dereferenceable(24) %this) #3, !dbg !2250
  %coerce.dive = getelementptr inbounds %"class.__gnu_cxx::__normal_iterator", %"class.__gnu_cxx::__normal_iterator"* %agg.tmp, i32 0, i32 0, !dbg !2250
  store i32* %call, i32** %coerce.dive, align 8, !dbg !2250
  %coerce.dive2 = getelementptr inbounds %"class.__gnu_cxx::__normal_iterator", %"class.__gnu_cxx::__normal_iterator"* %agg.tmp, i32 0, i32 0, !dbg !2251
  %i1 = load i32*, i32** %coerce.dive2, align 8, !dbg !2251
  invoke void @_ZNSt16reverse_iteratorIN9__gnu_cxx17__normal_iteratorIPiSt6vectorIiSaIiEEEEEC2ES6_(%"class.std::reverse_iterator"* noundef nonnull align 8 dereferenceable(8) %agg.result, i32* %i1)
          to label %invoke.cont unwind label %terminate.lpad, !dbg !2251

invoke.cont:                                      ; preds = %entry
  ret void, !dbg !2252

terminate.lpad:                                   ; preds = %entry
  %i2 = landingpad { i8*, i32 }
          catch i8* null, !dbg !2251
  %i3 = extractvalue { i8*, i32 } %i2, 0, !dbg !2251
  call void @__clang_call_terminate(i8* %i3) #15, !dbg !2251
  unreachable, !dbg !2251
}

; Function Attrs: mustprogress noinline nounwind uwtable
define linkonce_odr dso_local void @_ZNSt6vectorIiSaIiEE4rendEv(%"class.std::reverse_iterator"* noalias sret(%"class.std::reverse_iterator") align 8 %agg.result, %"class.std::vector"* noundef nonnull align 8 dereferenceable(24) %this) #6 comdat align 2 personality i8* bitcast (i32 (...)* @__gxx_personality_v0 to i8*) !dbg !2253 {
entry:
  %agg.tmp = alloca %"class.__gnu_cxx::__normal_iterator", align 8
  %i = bitcast %"class.std::reverse_iterator"* %agg.result to i8*
  call void @llvm.dbg.value(metadata %"class.std::vector"* %this, metadata !2254, metadata !DIExpression()), !dbg !2255
  %call = call i32* @_ZNSt6vectorIiSaIiEE5beginEv(%"class.std::vector"* noundef nonnull align 8 dereferenceable(24) %this) #3, !dbg !2256
  %coerce.dive = getelementptr inbounds %"class.__gnu_cxx::__normal_iterator", %"class.__gnu_cxx::__normal_iterator"* %agg.tmp, i32 0, i32 0, !dbg !2256
  store i32* %call, i32** %coerce.dive, align 8, !dbg !2256
  %coerce.dive2 = getelementptr inbounds %"class.__gnu_cxx::__normal_iterator", %"class.__gnu_cxx::__normal_iterator"* %agg.tmp, i32 0, i32 0, !dbg !2257
  %i1 = load i32*, i32** %coerce.dive2, align 8, !dbg !2257
  invoke void @_ZNSt16reverse_iteratorIN9__gnu_cxx17__normal_iteratorIPiSt6vectorIiSaIiEEEEEC2ES6_(%"class.std::reverse_iterator"* noundef nonnull align 8 dereferenceable(8) %agg.result, i32* %i1)
          to label %invoke.cont unwind label %terminate.lpad, !dbg !2257

invoke.cont:                                      ; preds = %entry
  ret void, !dbg !2258

terminate.lpad:                                   ; preds = %entry
  %i2 = landingpad { i8*, i32 }
          catch i8* null, !dbg !2257
  %i3 = extractvalue { i8*, i32 } %i2, 0, !dbg !2257
  call void @__clang_call_terminate(i8* %i3) #15, !dbg !2257
  unreachable, !dbg !2257
}

; Function Attrs: mustprogress noinline uwtable
define linkonce_odr dso_local noundef zeroext i1 @_ZSteqIN9__gnu_cxx17__normal_iteratorIPiSt6vectorIiSaIiEEEEEbRKSt16reverse_iteratorIT_ESB_(%"class.std::reverse_iterator"* noundef nonnull align 8 dereferenceable(8) %__x, %"class.std::reverse_iterator"* noundef nonnull align 8 dereferenceable(8) %__y) #4 comdat !dbg !2259 {
entry:
  %ref.tmp = alloca %"class.__gnu_cxx::__normal_iterator", align 8
  %ref.tmp1 = alloca %"class.__gnu_cxx::__normal_iterator", align 8
  call void @llvm.dbg.value(metadata %"class.std::reverse_iterator"* %__x, metadata !2262, metadata !DIExpression()), !dbg !2263
  call void @llvm.dbg.value(metadata %"class.std::reverse_iterator"* %__y, metadata !2264, metadata !DIExpression()), !dbg !2263
  %call = call i32* @_ZNKSt16reverse_iteratorIN9__gnu_cxx17__normal_iteratorIPiSt6vectorIiSaIiEEEEE4baseEv(%"class.std::reverse_iterator"* noundef nonnull align 8 dereferenceable(8) %__x), !dbg !2265
  %coerce.dive = getelementptr inbounds %"class.__gnu_cxx::__normal_iterator", %"class.__gnu_cxx::__normal_iterator"* %ref.tmp, i32 0, i32 0, !dbg !2265
  store i32* %call, i32** %coerce.dive, align 8, !dbg !2265
  %call2 = call i32* @_ZNKSt16reverse_iteratorIN9__gnu_cxx17__normal_iteratorIPiSt6vectorIiSaIiEEEEE4baseEv(%"class.std::reverse_iterator"* noundef nonnull align 8 dereferenceable(8) %__y), !dbg !2266
  %coerce.dive3 = getelementptr inbounds %"class.__gnu_cxx::__normal_iterator", %"class.__gnu_cxx::__normal_iterator"* %ref.tmp1, i32 0, i32 0, !dbg !2266
  store i32* %call2, i32** %coerce.dive3, align 8, !dbg !2266
  %call4 = call noundef zeroext i1 @_ZN9__gnu_cxxeqIPiSt6vectorIiSaIiEEEEbRKNS_17__normal_iteratorIT_T0_EESA_(%"class.__gnu_cxx::__normal_iterator"* noundef nonnull align 8 dereferenceable(8) %ref.tmp, %"class.__gnu_cxx::__normal_iterator"* noundef nonnull align 8 dereferenceable(8) %ref.tmp1) #3, !dbg !2267
  ret i1 %call4, !dbg !2268
}

; Function Attrs: mustprogress noinline uwtable
define linkonce_odr dso_local void @_ZSt7reverseISt16reverse_iteratorIN9__gnu_cxx17__normal_iteratorIPiSt6vectorIiSaIiEEEEEEvT_S9_(%"class.std::reverse_iterator"* noundef %__first, %"class.std::reverse_iterator"* noundef %__last) #4 comdat !dbg !2269 {
entry:
  %agg.tmp = alloca %"class.std::reverse_iterator", align 8
  %agg.tmp1 = alloca %"class.std::reverse_iterator", align 8
  call void @llvm.dbg.declare(metadata %"class.std::reverse_iterator"* %__first, metadata !2274, metadata !DIExpression()), !dbg !2275
  call void @llvm.dbg.declare(metadata %"class.std::reverse_iterator"* %__last, metadata !2276, metadata !DIExpression()), !dbg !2277
  call void @_ZNSt16reverse_iteratorIN9__gnu_cxx17__normal_iteratorIPiSt6vectorIiSaIiEEEEEC2ERKS7_(%"class.std::reverse_iterator"* noundef nonnull align 8 dereferenceable(8) %agg.tmp, %"class.std::reverse_iterator"* noundef nonnull align 8 dereferenceable(8) %__first), !dbg !2278
  call void @_ZNSt16reverse_iteratorIN9__gnu_cxx17__normal_iteratorIPiSt6vectorIiSaIiEEEEEC2ERKS7_(%"class.std::reverse_iterator"* noundef nonnull align 8 dereferenceable(8) %agg.tmp1, %"class.std::reverse_iterator"* noundef nonnull align 8 dereferenceable(8) %__last), !dbg !2279
  call void @_ZSt19__iterator_categoryISt16reverse_iteratorIN9__gnu_cxx17__normal_iteratorIPiSt6vectorIiSaIiEEEEEENSt15iterator_traitsIT_E17iterator_categoryERKSA_(%"class.std::reverse_iterator"* noundef nonnull align 8 dereferenceable(8) %__first), !dbg !2280
  call void @_ZSt9__reverseISt16reverse_iteratorIN9__gnu_cxx17__normal_iteratorIPiSt6vectorIiSaIiEEEEEEvT_S9_St26random_access_iterator_tag(%"class.std::reverse_iterator"* noundef %agg.tmp, %"class.std::reverse_iterator"* noundef %agg.tmp1), !dbg !2281
  ret void, !dbg !2282
}

; Function Attrs: mustprogress noinline uwtable
define linkonce_odr dso_local void @_ZSt11upper_boundISt16reverse_iteratorIN9__gnu_cxx17__normal_iteratorIPiSt6vectorIiSaIiEEEEEiET_S9_S9_RKT0_(%"class.std::reverse_iterator"* noalias sret(%"class.std::reverse_iterator") align 8 %agg.result, %"class.std::reverse_iterator"* noundef %__first, %"class.std::reverse_iterator"* noundef %__last, i32* noundef nonnull align 4 dereferenceable(4) %__val) #4 comdat !dbg !2283 {
entry:
  %agg.tmp = alloca %"class.std::reverse_iterator", align 8
  %agg.tmp1 = alloca %"class.std::reverse_iterator", align 8
  %i = bitcast %"class.std::reverse_iterator"* %agg.result to i8*
  call void @llvm.dbg.declare(metadata %"class.std::reverse_iterator"* %__first, metadata !2287, metadata !DIExpression()), !dbg !2288
  call void @llvm.dbg.declare(metadata %"class.std::reverse_iterator"* %__last, metadata !2289, metadata !DIExpression()), !dbg !2290
  call void @llvm.dbg.value(metadata i32* %__val, metadata !2291, metadata !DIExpression()), !dbg !2292
  call void @_ZNSt16reverse_iteratorIN9__gnu_cxx17__normal_iteratorIPiSt6vectorIiSaIiEEEEEC2ERKS7_(%"class.std::reverse_iterator"* noundef nonnull align 8 dereferenceable(8) %agg.tmp, %"class.std::reverse_iterator"* noundef nonnull align 8 dereferenceable(8) %__first), !dbg !2293
  call void @_ZNSt16reverse_iteratorIN9__gnu_cxx17__normal_iteratorIPiSt6vectorIiSaIiEEEEEC2ERKS7_(%"class.std::reverse_iterator"* noundef nonnull align 8 dereferenceable(8) %agg.tmp1, %"class.std::reverse_iterator"* noundef nonnull align 8 dereferenceable(8) %__last), !dbg !2294
  call void @_ZN9__gnu_cxx5__ops15__val_less_iterEv(), !dbg !2295
  call void @_ZSt13__upper_boundISt16reverse_iteratorIN9__gnu_cxx17__normal_iteratorIPiSt6vectorIiSaIiEEEEEiNS1_5__ops14_Val_less_iterEET_SB_SB_RKT0_T1_(%"class.std::reverse_iterator"* sret(%"class.std::reverse_iterator") align 8 %agg.result, %"class.std::reverse_iterator"* noundef %agg.tmp, %"class.std::reverse_iterator"* noundef %agg.tmp1, i32* noundef nonnull align 4 dereferenceable(4) %__val), !dbg !2296
  ret void, !dbg !2297
}

; Function Attrs: noinline nounwind uwtable
define linkonce_odr dso_local void @_ZNSt16reverse_iteratorIN9__gnu_cxx17__normal_iteratorIPiSt6vectorIiSaIiEEEEEC2ERKS7_(%"class.std::reverse_iterator"* noundef nonnull align 8 dereferenceable(8) %this, %"class.std::reverse_iterator"* noundef nonnull align 8 dereferenceable(8) %__x) unnamed_addr #7 comdat align 2 !dbg !2298 {
entry:
  call void @llvm.dbg.value(metadata %"class.std::reverse_iterator"* %this, metadata !2299, metadata !DIExpression()), !dbg !2301
  call void @llvm.dbg.value(metadata %"class.std::reverse_iterator"* %__x, metadata !2302, metadata !DIExpression()), !dbg !2301
  %i = bitcast %"class.std::reverse_iterator"* %this to %"struct.std::iterator"*, !dbg !2303
  %current = getelementptr inbounds %"class.std::reverse_iterator", %"class.std::reverse_iterator"* %this, i32 0, i32 0, !dbg !2304
  %current2 = getelementptr inbounds %"class.std::reverse_iterator", %"class.std::reverse_iterator"* %__x, i32 0, i32 0, !dbg !2305
  %i2 = bitcast %"class.__gnu_cxx::__normal_iterator"* %current to i8*, !dbg !2304
  %i3 = bitcast %"class.__gnu_cxx::__normal_iterator"* %current2 to i8*, !dbg !2304
  call void @llvm.memcpy.p0i8.p0i8.i64(i8* align 8 %i2, i8* align 8 %i3, i64 8, i1 false), !dbg !2304
  ret void, !dbg !2306
}

; Function Attrs: mustprogress noinline nounwind uwtable
define linkonce_odr dso_local noundef nonnull align 4 dereferenceable(4) i32* @_ZNKSt16reverse_iteratorIN9__gnu_cxx17__normal_iteratorIPiSt6vectorIiSaIiEEEEEdeEv(%"class.std::reverse_iterator"* noundef nonnull align 8 dereferenceable(8) %this) #6 comdat align 2 !dbg !2307 {
entry:
  %__tmp = alloca %"class.__gnu_cxx::__normal_iterator", align 8
  call void @llvm.dbg.value(metadata %"class.std::reverse_iterator"* %this, metadata !2308, metadata !DIExpression()), !dbg !2310
  call void @llvm.dbg.declare(metadata %"class.__gnu_cxx::__normal_iterator"* %__tmp, metadata !2311, metadata !DIExpression()), !dbg !2312
  %current = getelementptr inbounds %"class.std::reverse_iterator", %"class.std::reverse_iterator"* %this, i32 0, i32 0, !dbg !2313
  %i = bitcast %"class.__gnu_cxx::__normal_iterator"* %__tmp to i8*, !dbg !2313
  %i1 = bitcast %"class.__gnu_cxx::__normal_iterator"* %current to i8*, !dbg !2313
  call void @llvm.memcpy.p0i8.p0i8.i64(i8* align 8 %i, i8* align 8 %i1, i64 8, i1 false), !dbg !2313
  %call = call noundef nonnull align 8 dereferenceable(8) %"class.__gnu_cxx::__normal_iterator"* @_ZN9__gnu_cxx17__normal_iteratorIPiSt6vectorIiSaIiEEEmmEv(%"class.__gnu_cxx::__normal_iterator"* noundef nonnull align 8 dereferenceable(8) %__tmp) #3, !dbg !2314
  %call2 = call noundef nonnull align 4 dereferenceable(4) i32* @_ZNK9__gnu_cxx17__normal_iteratorIPiSt6vectorIiSaIiEEEdeEv(%"class.__gnu_cxx::__normal_iterator"* noundef nonnull align 8 dereferenceable(8) %call) #3, !dbg !2315
  ret i32* %call2, !dbg !2316
}

; Function Attrs: mustprogress noinline nounwind uwtable
define linkonce_odr dso_local void @_ZSt4swapIiENSt9enable_ifIXsr6__and_ISt6__not_ISt15__is_tuple_likeIT_EESt21is_move_constructibleIS3_ESt18is_move_assignableIS3_EEE5valueEvE4typeERS3_SC_(i32* noundef nonnull align 4 dereferenceable(4) %__a, i32* noundef nonnull align 4 dereferenceable(4) %__b) #6 comdat !dbg !2317 {
entry:
  %__tmp = alloca i32, align 4
  call void @llvm.dbg.value(metadata i32* %__a, metadata !2326, metadata !DIExpression()), !dbg !2327
  call void @llvm.dbg.value(metadata i32* %__b, metadata !2328, metadata !DIExpression()), !dbg !2327
  call void @llvm.dbg.declare(metadata i32* %__tmp, metadata !2329, metadata !DIExpression()), !dbg !2330
  %call = call noundef nonnull align 4 dereferenceable(4) i32* @_ZSt4moveIRiEONSt16remove_referenceIT_E4typeEOS2_(i32* noundef nonnull align 4 dereferenceable(4) %__a) #3, !dbg !2331
  %i1 = load i32, i32* %call, align 4, !dbg !2331
  store i32 %i1, i32* %__tmp, align 4, !dbg !2330
  %call1 = call noundef nonnull align 4 dereferenceable(4) i32* @_ZSt4moveIRiEONSt16remove_referenceIT_E4typeEOS2_(i32* noundef nonnull align 4 dereferenceable(4) %__b) #3, !dbg !2332
  %i3 = load i32, i32* %call1, align 4, !dbg !2332
  store i32 %i3, i32* %__a, align 4, !dbg !2333
  %call2 = call noundef nonnull align 4 dereferenceable(4) i32* @_ZSt4moveIRiEONSt16remove_referenceIT_E4typeEOS2_(i32* noundef nonnull align 4 dereferenceable(4) %__tmp) #3, !dbg !2334
  %i5 = load i32, i32* %call2, align 4, !dbg !2334
  store i32 %i5, i32* %__b, align 4, !dbg !2335
  ret void, !dbg !2336
}

; Function Attrs: noinline uwtable
define linkonce_odr dso_local void @_ZNSt6vectorIiSaIiEEC2ERKS1_(%"class.std::vector"* noundef nonnull align 8 dereferenceable(24) %this, %"class.std::vector"* noundef nonnull align 8 dereferenceable(24) %__x) unnamed_addr #0 comdat align 2 personality i8* bitcast (i32 (...)* @__gxx_personality_v0 to i8*) !dbg !2337 {
entry:
  %ref.tmp = alloca %"class.std::allocator", align 1
  %agg.tmp = alloca %"class.__gnu_cxx::__normal_iterator.0", align 8
  %agg.tmp4 = alloca %"class.__gnu_cxx::__normal_iterator.0", align 8
  call void @llvm.dbg.value(metadata %"class.std::vector"* %this, metadata !2338, metadata !DIExpression()), !dbg !2339
  call void @llvm.dbg.value(metadata %"class.std::vector"* %__x, metadata !2340, metadata !DIExpression()), !dbg !2339
  %i = bitcast %"class.std::vector"* %this to %"struct.std::_Vector_base"*, !dbg !2341
  %call = call noundef i64 @_ZNKSt6vectorIiSaIiEE4sizeEv(%"class.std::vector"* noundef nonnull align 8 dereferenceable(24) %__x) #3, !dbg !2342
  %i3 = bitcast %"class.std::vector"* %__x to %"struct.std::_Vector_base"*, !dbg !2343
  %call2 = call noundef nonnull align 1 dereferenceable(1) %"class.std::allocator"* @_ZNKSt12_Vector_baseIiSaIiEE19_M_get_Tp_allocatorEv(%"struct.std::_Vector_base"* noundef nonnull align 8 dereferenceable(24) %i3) #3, !dbg !2344
  call void @_ZN9__gnu_cxx14__alloc_traitsISaIiEiE17_S_select_on_copyERKS1_(%"class.std::allocator"* sret(%"class.std::allocator") align 1 %ref.tmp, %"class.std::allocator"* noundef nonnull align 1 dereferenceable(1) %call2), !dbg !2345
  invoke void @_ZNSt12_Vector_baseIiSaIiEEC2EmRKS0_(%"struct.std::_Vector_base"* noundef nonnull align 8 dereferenceable(24) %i, i64 noundef %call, %"class.std::allocator"* noundef nonnull align 1 dereferenceable(1) %ref.tmp)
          to label %invoke.cont unwind label %lpad, !dbg !2346

invoke.cont:                                      ; preds = %entry
  call void @_ZNSaIiED2Ev(%"class.std::allocator"* noundef nonnull align 1 dereferenceable(1) %ref.tmp) #3, !dbg !2346
  %call3 = call i32* @_ZNKSt6vectorIiSaIiEE5beginEv(%"class.std::vector"* noundef nonnull align 8 dereferenceable(24) %__x) #3, !dbg !2347
  %coerce.dive = getelementptr inbounds %"class.__gnu_cxx::__normal_iterator.0", %"class.__gnu_cxx::__normal_iterator.0"* %agg.tmp, i32 0, i32 0, !dbg !2347
  store i32* %call3, i32** %coerce.dive, align 8, !dbg !2347
  %call5 = call i32* @_ZNKSt6vectorIiSaIiEE3endEv(%"class.std::vector"* noundef nonnull align 8 dereferenceable(24) %__x) #3, !dbg !2349
  %coerce.dive6 = getelementptr inbounds %"class.__gnu_cxx::__normal_iterator.0", %"class.__gnu_cxx::__normal_iterator.0"* %agg.tmp4, i32 0, i32 0, !dbg !2349
  store i32* %call5, i32** %coerce.dive6, align 8, !dbg !2349
  %i6 = bitcast %"class.std::vector"* %this to %"struct.std::_Vector_base"*, !dbg !2350
  %_M_impl = getelementptr inbounds %"struct.std::_Vector_base", %"struct.std::_Vector_base"* %i6, i32 0, i32 0, !dbg !2350
  %i7 = bitcast %"struct.std::_Vector_base<int, std::allocator<int>>::_Vector_impl"* %_M_impl to %"struct.std::_Vector_base<int, std::allocator<int>>::_Vector_impl_data"*, !dbg !2351
  %_M_start = getelementptr inbounds %"struct.std::_Vector_base<int, std::allocator<int>>::_Vector_impl_data", %"struct.std::_Vector_base<int, std::allocator<int>>::_Vector_impl_data"* %i7, i32 0, i32 0, !dbg !2352
  %i8 = load i32*, i32** %_M_start, align 8, !dbg !2352
  %i9 = bitcast %"class.std::vector"* %this to %"struct.std::_Vector_base"*, !dbg !2353
  %call7 = call noundef nonnull align 1 dereferenceable(1) %"class.std::allocator"* @_ZNSt12_Vector_baseIiSaIiEE19_M_get_Tp_allocatorEv(%"struct.std::_Vector_base"* noundef nonnull align 8 dereferenceable(24) %i9) #3, !dbg !2353
  %coerce.dive8 = getelementptr inbounds %"class.__gnu_cxx::__normal_iterator.0", %"class.__gnu_cxx::__normal_iterator.0"* %agg.tmp, i32 0, i32 0, !dbg !2354
  %i10 = load i32*, i32** %coerce.dive8, align 8, !dbg !2354
  %coerce.dive9 = getelementptr inbounds %"class.__gnu_cxx::__normal_iterator.0", %"class.__gnu_cxx::__normal_iterator.0"* %agg.tmp4, i32 0, i32 0, !dbg !2354
  %i11 = load i32*, i32** %coerce.dive9, align 8, !dbg !2354
  %call12 = invoke noundef i32* @_ZSt22__uninitialized_copy_aIN9__gnu_cxx17__normal_iteratorIPKiSt6vectorIiSaIiEEEEPiiET0_T_SA_S9_RSaIT1_E(i32* %i10, i32* %i11, i32* noundef %i8, %"class.std::allocator"* noundef nonnull align 1 dereferenceable(1) %call7)
          to label %invoke.cont11 unwind label %lpad10, !dbg !2354

invoke.cont11:                                    ; preds = %invoke.cont
  %i12 = bitcast %"class.std::vector"* %this to %"struct.std::_Vector_base"*, !dbg !2355
  %_M_impl13 = getelementptr inbounds %"struct.std::_Vector_base", %"struct.std::_Vector_base"* %i12, i32 0, i32 0, !dbg !2355
  %i13 = bitcast %"struct.std::_Vector_base<int, std::allocator<int>>::_Vector_impl"* %_M_impl13 to %"struct.std::_Vector_base<int, std::allocator<int>>::_Vector_impl_data"*, !dbg !2356
  %_M_finish = getelementptr inbounds %"struct.std::_Vector_base<int, std::allocator<int>>::_Vector_impl_data", %"struct.std::_Vector_base<int, std::allocator<int>>::_Vector_impl_data"* %i13, i32 0, i32 1, !dbg !2357
  store i32* %call12, i32** %_M_finish, align 8, !dbg !2358
  ret void, !dbg !2359

lpad:                                             ; preds = %entry
  %i14 = landingpad { i8*, i32 }
          cleanup, !dbg !2359
  %i15 = extractvalue { i8*, i32 } %i14, 0, !dbg !2359
  %i16 = extractvalue { i8*, i32 } %i14, 1, !dbg !2359
  call void @_ZNSaIiED2Ev(%"class.std::allocator"* noundef nonnull align 1 dereferenceable(1) %ref.tmp) #3, !dbg !2346
  br label %eh.resume, !dbg !2346

lpad10:                                           ; preds = %invoke.cont
  %i17 = landingpad { i8*, i32 }
          cleanup, !dbg !2360
  %i18 = extractvalue { i8*, i32 } %i17, 0, !dbg !2360
  %i19 = extractvalue { i8*, i32 } %i17, 1, !dbg !2360
  %i20 = bitcast %"class.std::vector"* %this to %"struct.std::_Vector_base"*, !dbg !2360
  call void @_ZNSt12_Vector_baseIiSaIiEED2Ev(%"struct.std::_Vector_base"* noundef nonnull align 8 dereferenceable(24) %i20) #3, !dbg !2360
  br label %eh.resume, !dbg !2360

eh.resume:                                        ; preds = %lpad10, %lpad
  %exn.slot.0 = phi i8* [ %i18, %lpad10 ], [ %i15, %lpad ], !dbg !2339
  %ehselector.slot.0 = phi i32 [ %i19, %lpad10 ], [ %i16, %lpad ], !dbg !2339
  %lpad.val = insertvalue { i8*, i32 } undef, i8* %exn.slot.0, 0, !dbg !2346
  %lpad.val14 = insertvalue { i8*, i32 } %lpad.val, i32 %ehselector.slot.0, 1, !dbg !2346
  resume { i8*, i32 } %lpad.val14, !dbg !2346
}

; Function Attrs: mustprogress noinline uwtable
define dso_local void @_Z8testcasev() #4 personality i8* bitcast (i32 (...)* @__gxx_personality_v0 to i8*) !dbg !2361 {
entry:
  %n = alloca i32, align 4
  %arr = alloca %"class.std::vector", align 8
  %ref.tmp = alloca %"class.std::allocator", align 1
  %res = alloca %"class.std::vector", align 8
  %__begin1 = alloca %"class.__gnu_cxx::__normal_iterator", align 8
  %__end1 = alloca %"class.__gnu_cxx::__normal_iterator", align 8
  call void @llvm.dbg.declare(metadata i32* %n, metadata !2362, metadata !DIExpression()), !dbg !2363
  %call = call noundef nonnull align 8 dereferenceable(16) %"class.std::basic_istream"* @_ZNSirsERi(%"class.std::basic_istream"* noundef nonnull align 8 dereferenceable(16) @_ZSt3cin, i32* noundef nonnull align 4 dereferenceable(4) %n), !dbg !2364
  call void @llvm.dbg.declare(metadata %"class.std::vector"* %arr, metadata !2365, metadata !DIExpression()), !dbg !2366
  %i1 = load i32, i32* %n, align 4, !dbg !2367
  %conv = sext i32 %i1 to i64, !dbg !2367
  call void @_ZNSaIiEC2Ev(%"class.std::allocator"* noundef nonnull align 1 dereferenceable(1) %ref.tmp) #3, !dbg !2366
  invoke void @_ZNSt6vectorIiSaIiEEC2EmRKS0_(%"class.std::vector"* noundef nonnull align 8 dereferenceable(24) %arr, i64 noundef %conv, %"class.std::allocator"* noundef nonnull align 1 dereferenceable(1) %ref.tmp)
          to label %invoke.cont unwind label %lpad, !dbg !2366

invoke.cont:                                      ; preds = %entry
  call void @_ZNSaIiED2Ev(%"class.std::allocator"* noundef nonnull align 1 dereferenceable(1) %ref.tmp) #3, !dbg !2366
  call void @llvm.dbg.value(metadata i32 0, metadata !2368, metadata !DIExpression()), !dbg !2370
  br label %for.cond, !dbg !2371

for.cond:                                         ; preds = %for.inc, %invoke.cont
  %i.0 = phi i32 [ 0, %invoke.cont ], [ %inc, %for.inc ], !dbg !2370
  call void @llvm.dbg.value(metadata i32 %i.0, metadata !2368, metadata !DIExpression()), !dbg !2370
  %i3 = load i32, i32* %n, align 4, !dbg !2372
  %cmp = icmp slt i32 %i.0, %i3, !dbg !2374
  br i1 %cmp, label %for.body, label %for.end, !dbg !2375

for.body:                                         ; preds = %for.cond
  %conv1 = sext i32 %i.0 to i64, !dbg !2376
  %call2 = call noundef nonnull align 4 dereferenceable(4) i32* @_ZNSt6vectorIiSaIiEEixEm(%"class.std::vector"* noundef nonnull align 8 dereferenceable(24) %arr, i64 noundef %conv1) #3, !dbg !2378
  %call5 = invoke noundef nonnull align 8 dereferenceable(16) %"class.std::basic_istream"* @_ZNSirsERi(%"class.std::basic_istream"* noundef nonnull align 8 dereferenceable(16) @_ZSt3cin, i32* noundef nonnull align 4 dereferenceable(4) %call2)
          to label %invoke.cont4 unwind label %lpad3, !dbg !2379

invoke.cont4:                                     ; preds = %for.body
  br label %for.inc, !dbg !2380

for.inc:                                          ; preds = %invoke.cont4
  %inc = add nsw i32 %i.0, 1, !dbg !2381
  call void @llvm.dbg.value(metadata i32 %inc, metadata !2368, metadata !DIExpression()), !dbg !2370
  br label %for.cond, !dbg !2382, !llvm.loop !2383

lpad:                                             ; preds = %entry
  %i6 = landingpad { i8*, i32 }
          cleanup, !dbg !2386
  %i7 = extractvalue { i8*, i32 } %i6, 0, !dbg !2386
  %i8 = extractvalue { i8*, i32 } %i6, 1, !dbg !2386
  call void @_ZNSaIiED2Ev(%"class.std::allocator"* noundef nonnull align 1 dereferenceable(1) %ref.tmp) #3, !dbg !2366
  br label %eh.resume, !dbg !2366

lpad3:                                            ; preds = %for.end, %for.body
  %i9 = landingpad { i8*, i32 }
          cleanup, !dbg !2387
  %i10 = extractvalue { i8*, i32 } %i9, 0, !dbg !2387
  %i11 = extractvalue { i8*, i32 } %i9, 1, !dbg !2387
  br label %ehcleanup, !dbg !2387

for.end:                                          ; preds = %for.cond
  call void @llvm.dbg.declare(metadata %"class.std::vector"* %res, metadata !2388, metadata !DIExpression()), !dbg !2389
  %i12 = load i32, i32* %n, align 4, !dbg !2390
  invoke void @_Z15nextPermutationRSt6vectorIiSaIiEEi(%"class.std::vector"* sret(%"class.std::vector") align 8 %res, %"class.std::vector"* noundef nonnull align 8 dereferenceable(24) %arr, i32 noundef %i12)
          to label %invoke.cont6 unwind label %lpad3, !dbg !2391

invoke.cont6:                                     ; preds = %for.end
  call void @llvm.dbg.value(metadata %"class.std::vector"* %res, metadata !2392, metadata !DIExpression()), !dbg !2394
  call void @llvm.dbg.declare(metadata %"class.__gnu_cxx::__normal_iterator"* %__begin1, metadata !2395, metadata !DIExpression()), !dbg !2394
  %call7 = call i32* @_ZNSt6vectorIiSaIiEE5beginEv(%"class.std::vector"* noundef nonnull align 8 dereferenceable(24) %res) #3, !dbg !2396
  %coerce.dive = getelementptr inbounds %"class.__gnu_cxx::__normal_iterator", %"class.__gnu_cxx::__normal_iterator"* %__begin1, i32 0, i32 0, !dbg !2396
  store i32* %call7, i32** %coerce.dive, align 8, !dbg !2396
  call void @llvm.dbg.declare(metadata %"class.__gnu_cxx::__normal_iterator"* %__end1, metadata !2397, metadata !DIExpression()), !dbg !2394
  %call8 = call i32* @_ZNSt6vectorIiSaIiEE3endEv(%"class.std::vector"* noundef nonnull align 8 dereferenceable(24) %res) #3, !dbg !2396
  %coerce.dive9 = getelementptr inbounds %"class.__gnu_cxx::__normal_iterator", %"class.__gnu_cxx::__normal_iterator"* %__end1, i32 0, i32 0, !dbg !2396
  store i32* %call8, i32** %coerce.dive9, align 8, !dbg !2396
  br label %for.cond10, !dbg !2396

for.cond10:                                       ; preds = %for.inc19, %invoke.cont6
  %call11 = call noundef zeroext i1 @_ZN9__gnu_cxxneIPiSt6vectorIiSaIiEEEEbRKNS_17__normal_iteratorIT_T0_EESA_(%"class.__gnu_cxx::__normal_iterator"* noundef nonnull align 8 dereferenceable(8) %__begin1, %"class.__gnu_cxx::__normal_iterator"* noundef nonnull align 8 dereferenceable(8) %__end1) #3, !dbg !2396
  br i1 %call11, label %for.body12, label %for.end21, !dbg !2396

for.body12:                                       ; preds = %for.cond10
  %call13 = call noundef nonnull align 4 dereferenceable(4) i32* @_ZNK9__gnu_cxx17__normal_iteratorIPiSt6vectorIiSaIiEEEdeEv(%"class.__gnu_cxx::__normal_iterator"* noundef nonnull align 8 dereferenceable(8) %__begin1) #3, !dbg !2398
  %i15 = load i32, i32* %call13, align 4, !dbg !2398
  call void @llvm.dbg.value(metadata i32 %i15, metadata !2400, metadata !DIExpression()), !dbg !2401
  %call16 = invoke noundef nonnull align 8 dereferenceable(8) %"class.std::basic_ostream"* @_ZNSolsEi(%"class.std::basic_ostream"* noundef nonnull align 8 dereferenceable(8) @_ZSt4cout, i32 noundef %i15)
          to label %invoke.cont15 unwind label %lpad14, !dbg !2402

invoke.cont15:                                    ; preds = %for.body12
  %call18 = invoke noundef nonnull align 8 dereferenceable(8) %"class.std::basic_ostream"* @_ZStlsISt11char_traitsIcEERSt13basic_ostreamIcT_ES5_PKc(%"class.std::basic_ostream"* noundef nonnull align 8 dereferenceable(8) %call16, i8* noundef getelementptr inbounds ([2 x i8], [2 x i8]* @.str, i64 0, i64 0))
          to label %invoke.cont17 unwind label %lpad14, !dbg !2404

invoke.cont17:                                    ; preds = %invoke.cont15
  br label %for.inc19, !dbg !2405

for.inc19:                                        ; preds = %invoke.cont17
  %call20 = call noundef nonnull align 8 dereferenceable(8) %"class.__gnu_cxx::__normal_iterator"* @_ZN9__gnu_cxx17__normal_iteratorIPiSt6vectorIiSaIiEEEppEv(%"class.__gnu_cxx::__normal_iterator"* noundef nonnull align 8 dereferenceable(8) %__begin1) #3, !dbg !2396
  br label %for.cond10, !dbg !2396, !llvm.loop !2406

lpad14:                                           ; preds = %for.end21, %invoke.cont15, %for.body12
  %i17 = landingpad { i8*, i32 }
          cleanup, !dbg !2408
  %i18 = extractvalue { i8*, i32 } %i17, 0, !dbg !2408
  %i19 = extractvalue { i8*, i32 } %i17, 1, !dbg !2408
  call void @_ZNSt6vectorIiSaIiEED2Ev(%"class.std::vector"* noundef nonnull align 8 dereferenceable(24) %res) #3, !dbg !2386
  br label %ehcleanup, !dbg !2386

for.end21:                                        ; preds = %for.cond10
  %call23 = invoke noundef nonnull align 8 dereferenceable(8) %"class.std::basic_ostream"* @_ZNSolsEPFRSoS_E(%"class.std::basic_ostream"* noundef nonnull align 8 dereferenceable(8) @_ZSt4cout, %"class.std::basic_ostream"* (%"class.std::basic_ostream"*)* noundef @_ZSt4endlIcSt11char_traitsIcEERSt13basic_ostreamIT_T0_ES6_)
          to label %invoke.cont22 unwind label %lpad14, !dbg !2409

invoke.cont22:                                    ; preds = %for.end21
  call void @_ZNSt6vectorIiSaIiEED2Ev(%"class.std::vector"* noundef nonnull align 8 dereferenceable(24) %res) #3, !dbg !2386
  call void @_ZNSt6vectorIiSaIiEED2Ev(%"class.std::vector"* noundef nonnull align 8 dereferenceable(24) %arr) #3, !dbg !2386
  ret void, !dbg !2386

ehcleanup:                                        ; preds = %lpad14, %lpad3
  %ehselector.slot.0 = phi i32 [ %i11, %lpad3 ], [ %i19, %lpad14 ], !dbg !2410
  %exn.slot.0 = phi i8* [ %i10, %lpad3 ], [ %i18, %lpad14 ], !dbg !2410
  call void @_ZNSt6vectorIiSaIiEED2Ev(%"class.std::vector"* noundef nonnull align 8 dereferenceable(24) %arr) #3, !dbg !2386
  br label %eh.resume, !dbg !2386

eh.resume:                                        ; preds = %ehcleanup, %lpad
  %ehselector.slot.1 = phi i32 [ %ehselector.slot.0, %ehcleanup ], [ %i8, %lpad ], !dbg !2410
  %exn.slot.1 = phi i8* [ %exn.slot.0, %ehcleanup ], [ %i7, %lpad ], !dbg !2410
  %lpad.val = insertvalue { i8*, i32 } undef, i8* %exn.slot.1, 0, !dbg !2366
  %lpad.val24 = insertvalue { i8*, i32 } %lpad.val, i32 %ehselector.slot.1, 1, !dbg !2366
  resume { i8*, i32 } %lpad.val24, !dbg !2366
}

declare noundef nonnull align 8 dereferenceable(16) %"class.std::basic_istream"* @_ZNSirsERi(%"class.std::basic_istream"* noundef nonnull align 8 dereferenceable(16), i32* noundef nonnull align 4 dereferenceable(4)) #1

; Function Attrs: noinline nounwind uwtable
define linkonce_odr dso_local void @_ZNSaIiEC2Ev(%"class.std::allocator"* noundef nonnull align 1 dereferenceable(1) %this) unnamed_addr #7 comdat align 2 !dbg !2411 {
entry:
  call void @llvm.dbg.value(metadata %"class.std::allocator"* %this, metadata !2412, metadata !DIExpression()), !dbg !2414
  %i = bitcast %"class.std::allocator"* %this to %"class.__gnu_cxx::new_allocator"*, !dbg !2415
  call void @_ZN9__gnu_cxx13new_allocatorIiEC2Ev(%"class.__gnu_cxx::new_allocator"* noundef nonnull align 1 dereferenceable(1) %i) #3, !dbg !2416
  ret void, !dbg !2417
}

; Function Attrs: noinline uwtable
define linkonce_odr dso_local void @_ZNSt6vectorIiSaIiEEC2EmRKS0_(%"class.std::vector"* noundef nonnull align 8 dereferenceable(24) %this, i64 noundef %__n, %"class.std::allocator"* noundef nonnull align 1 dereferenceable(1) %__a) unnamed_addr #0 comdat align 2 personality i8* bitcast (i32 (...)* @__gxx_personality_v0 to i8*) !dbg !2418 {
entry:
  call void @llvm.dbg.value(metadata %"class.std::vector"* %this, metadata !2419, metadata !DIExpression()), !dbg !2420
  call void @llvm.dbg.value(metadata i64 %__n, metadata !2421, metadata !DIExpression()), !dbg !2420
  call void @llvm.dbg.value(metadata %"class.std::allocator"* %__a, metadata !2422, metadata !DIExpression()), !dbg !2420
  %i = bitcast %"class.std::vector"* %this to %"struct.std::_Vector_base"*, !dbg !2423
  %call = call noundef i64 @_ZNSt6vectorIiSaIiEE17_S_check_init_lenEmRKS0_(i64 noundef %__n, %"class.std::allocator"* noundef nonnull align 1 dereferenceable(1) %__a), !dbg !2424
  call void @_ZNSt12_Vector_baseIiSaIiEEC2EmRKS0_(%"struct.std::_Vector_base"* noundef nonnull align 8 dereferenceable(24) %i, i64 noundef %call, %"class.std::allocator"* noundef nonnull align 1 dereferenceable(1) %__a), !dbg !2425
  invoke void @_ZNSt6vectorIiSaIiEE21_M_default_initializeEm(%"class.std::vector"* noundef nonnull align 8 dereferenceable(24) %this, i64 noundef %__n)
          to label %invoke.cont unwind label %lpad, !dbg !2426

invoke.cont:                                      ; preds = %entry
  ret void, !dbg !2428

lpad:                                             ; preds = %entry
  %i5 = landingpad { i8*, i32 }
          cleanup, !dbg !2429
  %i6 = extractvalue { i8*, i32 } %i5, 0, !dbg !2429
  %i7 = extractvalue { i8*, i32 } %i5, 1, !dbg !2429
  %i8 = bitcast %"class.std::vector"* %this to %"struct.std::_Vector_base"*, !dbg !2429
  call void @_ZNSt12_Vector_baseIiSaIiEED2Ev(%"struct.std::_Vector_base"* noundef nonnull align 8 dereferenceable(24) %i8) #3, !dbg !2429
  br label %eh.resume, !dbg !2429

eh.resume:                                        ; preds = %lpad
  %lpad.val = insertvalue { i8*, i32 } undef, i8* %i6, 0, !dbg !2429
  %lpad.val2 = insertvalue { i8*, i32 } %lpad.val, i32 %i7, 1, !dbg !2429
  resume { i8*, i32 } %lpad.val2, !dbg !2429
}

declare i32 @__gxx_personality_v0(...)

; Function Attrs: noinline nounwind uwtable
define linkonce_odr dso_local void @_ZNSaIiED2Ev(%"class.std::allocator"* noundef nonnull align 1 dereferenceable(1) %this) unnamed_addr #7 comdat align 2 !dbg !2430 {
entry:
  call void @llvm.dbg.value(metadata %"class.std::allocator"* %this, metadata !2431, metadata !DIExpression()), !dbg !2432
  %i = bitcast %"class.std::allocator"* %this to %"class.__gnu_cxx::new_allocator"*, !dbg !2433
  call void @_ZN9__gnu_cxx13new_allocatorIiED2Ev(%"class.__gnu_cxx::new_allocator"* noundef nonnull align 1 dereferenceable(1) %i) #3, !dbg !2433
  ret void, !dbg !2435
}

; Function Attrs: mustprogress noinline nounwind uwtable
define linkonce_odr dso_local noundef nonnull align 4 dereferenceable(4) i32* @_ZNSt6vectorIiSaIiEEixEm(%"class.std::vector"* noundef nonnull align 8 dereferenceable(24) %this, i64 noundef %__n) #6 comdat align 2 !dbg !2436 {
entry:
  call void @llvm.dbg.value(metadata %"class.std::vector"* %this, metadata !2437, metadata !DIExpression()), !dbg !2438
  call void @llvm.dbg.value(metadata i64 %__n, metadata !2439, metadata !DIExpression()), !dbg !2438
  %i = bitcast %"class.std::vector"* %this to %"struct.std::_Vector_base"*, !dbg !2440
  %_M_impl = getelementptr inbounds %"struct.std::_Vector_base", %"struct.std::_Vector_base"* %i, i32 0, i32 0, !dbg !2440
  %i1 = bitcast %"struct.std::_Vector_base<int, std::allocator<int>>::_Vector_impl"* %_M_impl to %"struct.std::_Vector_base<int, std::allocator<int>>::_Vector_impl_data"*, !dbg !2441
  %_M_start = getelementptr inbounds %"struct.std::_Vector_base<int, std::allocator<int>>::_Vector_impl_data", %"struct.std::_Vector_base<int, std::allocator<int>>::_Vector_impl_data"* %i1, i32 0, i32 0, !dbg !2442
  %i2 = load i32*, i32** %_M_start, align 8, !dbg !2442
  %add.ptr = getelementptr inbounds i32, i32* %i2, i64 %__n, !dbg !2443
  ret i32* %add.ptr, !dbg !2444
}

; Function Attrs: mustprogress noinline nounwind uwtable
define linkonce_odr dso_local i32* @_ZNSt6vectorIiSaIiEE5beginEv(%"class.std::vector"* noundef nonnull align 8 dereferenceable(24) %this) #6 comdat align 2 !dbg !2445 {
entry:
  %retval = alloca %"class.__gnu_cxx::__normal_iterator", align 8
  call void @llvm.dbg.value(metadata %"class.std::vector"* %this, metadata !2446, metadata !DIExpression()), !dbg !2447
  %i = bitcast %"class.std::vector"* %this to %"struct.std::_Vector_base"*, !dbg !2448
  %_M_impl = getelementptr inbounds %"struct.std::_Vector_base", %"struct.std::_Vector_base"* %i, i32 0, i32 0, !dbg !2448
  %i1 = bitcast %"struct.std::_Vector_base<int, std::allocator<int>>::_Vector_impl"* %_M_impl to %"struct.std::_Vector_base<int, std::allocator<int>>::_Vector_impl_data"*, !dbg !2449
  %_M_start = getelementptr inbounds %"struct.std::_Vector_base<int, std::allocator<int>>::_Vector_impl_data", %"struct.std::_Vector_base<int, std::allocator<int>>::_Vector_impl_data"* %i1, i32 0, i32 0, !dbg !2450
  call void @_ZN9__gnu_cxx17__normal_iteratorIPiSt6vectorIiSaIiEEEC2ERKS1_(%"class.__gnu_cxx::__normal_iterator"* noundef nonnull align 8 dereferenceable(8) %retval, i32** noundef nonnull align 8 dereferenceable(8) %_M_start) #3, !dbg !2451
  %coerce.dive = getelementptr inbounds %"class.__gnu_cxx::__normal_iterator", %"class.__gnu_cxx::__normal_iterator"* %retval, i32 0, i32 0, !dbg !2452
  %i2 = load i32*, i32** %coerce.dive, align 8, !dbg !2452
  ret i32* %i2, !dbg !2452
}

; Function Attrs: mustprogress noinline nounwind uwtable
define linkonce_odr dso_local i32* @_ZNSt6vectorIiSaIiEE3endEv(%"class.std::vector"* noundef nonnull align 8 dereferenceable(24) %this) #6 comdat align 2 !dbg !2453 {
entry:
  %retval = alloca %"class.__gnu_cxx::__normal_iterator", align 8
  call void @llvm.dbg.value(metadata %"class.std::vector"* %this, metadata !2454, metadata !DIExpression()), !dbg !2455
  %i = bitcast %"class.std::vector"* %this to %"struct.std::_Vector_base"*, !dbg !2456
  %_M_impl = getelementptr inbounds %"struct.std::_Vector_base", %"struct.std::_Vector_base"* %i, i32 0, i32 0, !dbg !2456
  %i1 = bitcast %"struct.std::_Vector_base<int, std::allocator<int>>::_Vector_impl"* %_M_impl to %"struct.std::_Vector_base<int, std::allocator<int>>::_Vector_impl_data"*, !dbg !2457
  %_M_finish = getelementptr inbounds %"struct.std::_Vector_base<int, std::allocator<int>>::_Vector_impl_data", %"struct.std::_Vector_base<int, std::allocator<int>>::_Vector_impl_data"* %i1, i32 0, i32 1, !dbg !2458
  call void @_ZN9__gnu_cxx17__normal_iteratorIPiSt6vectorIiSaIiEEEC2ERKS1_(%"class.__gnu_cxx::__normal_iterator"* noundef nonnull align 8 dereferenceable(8) %retval, i32** noundef nonnull align 8 dereferenceable(8) %_M_finish) #3, !dbg !2459
  %coerce.dive = getelementptr inbounds %"class.__gnu_cxx::__normal_iterator", %"class.__gnu_cxx::__normal_iterator"* %retval, i32 0, i32 0, !dbg !2460
  %i2 = load i32*, i32** %coerce.dive, align 8, !dbg !2460
  ret i32* %i2, !dbg !2460
}

; Function Attrs: mustprogress noinline nounwind uwtable
define linkonce_odr dso_local noundef zeroext i1 @_ZN9__gnu_cxxneIPiSt6vectorIiSaIiEEEEbRKNS_17__normal_iteratorIT_T0_EESA_(%"class.__gnu_cxx::__normal_iterator"* noundef nonnull align 8 dereferenceable(8) %__lhs, %"class.__gnu_cxx::__normal_iterator"* noundef nonnull align 8 dereferenceable(8) %__rhs) #6 comdat !dbg !2461 {
entry:
  call void @llvm.dbg.value(metadata %"class.__gnu_cxx::__normal_iterator"* %__lhs, metadata !2465, metadata !DIExpression()), !dbg !2466
  call void @llvm.dbg.value(metadata %"class.__gnu_cxx::__normal_iterator"* %__rhs, metadata !2467, metadata !DIExpression()), !dbg !2466
  %call = call noundef nonnull align 8 dereferenceable(8) i32** @_ZNK9__gnu_cxx17__normal_iteratorIPiSt6vectorIiSaIiEEE4baseEv(%"class.__gnu_cxx::__normal_iterator"* noundef nonnull align 8 dereferenceable(8) %__lhs) #3, !dbg !2468
  %i1 = load i32*, i32** %call, align 8, !dbg !2468
  %call1 = call noundef nonnull align 8 dereferenceable(8) i32** @_ZNK9__gnu_cxx17__normal_iteratorIPiSt6vectorIiSaIiEEE4baseEv(%"class.__gnu_cxx::__normal_iterator"* noundef nonnull align 8 dereferenceable(8) %__rhs) #3, !dbg !2469
  %i3 = load i32*, i32** %call1, align 8, !dbg !2469
  %cmp = icmp ne i32* %i1, %i3, !dbg !2470
  ret i1 %cmp, !dbg !2471
}

; Function Attrs: mustprogress noinline nounwind uwtable
define linkonce_odr dso_local noundef nonnull align 4 dereferenceable(4) i32* @_ZNK9__gnu_cxx17__normal_iteratorIPiSt6vectorIiSaIiEEEdeEv(%"class.__gnu_cxx::__normal_iterator"* noundef nonnull align 8 dereferenceable(8) %this) #6 comdat align 2 !dbg !2472 {
entry:
  call void @llvm.dbg.value(metadata %"class.__gnu_cxx::__normal_iterator"* %this, metadata !2473, metadata !DIExpression()), !dbg !2475
  %_M_current = getelementptr inbounds %"class.__gnu_cxx::__normal_iterator", %"class.__gnu_cxx::__normal_iterator"* %this, i32 0, i32 0, !dbg !2476
  %i = load i32*, i32** %_M_current, align 8, !dbg !2476
  ret i32* %i, !dbg !2477
}

declare noundef nonnull align 8 dereferenceable(8) %"class.std::basic_ostream"* @_ZStlsISt11char_traitsIcEERSt13basic_ostreamIcT_ES5_PKc(%"class.std::basic_ostream"* noundef nonnull align 8 dereferenceable(8), i8* noundef) #1

declare noundef nonnull align 8 dereferenceable(8) %"class.std::basic_ostream"* @_ZNSolsEi(%"class.std::basic_ostream"* noundef nonnull align 8 dereferenceable(8), i32 noundef) #1

; Function Attrs: mustprogress noinline nounwind uwtable
define linkonce_odr dso_local noundef nonnull align 8 dereferenceable(8) %"class.__gnu_cxx::__normal_iterator"* @_ZN9__gnu_cxx17__normal_iteratorIPiSt6vectorIiSaIiEEEppEv(%"class.__gnu_cxx::__normal_iterator"* noundef nonnull align 8 dereferenceable(8) %this) #6 comdat align 2 !dbg !2478 {
entry:
  call void @llvm.dbg.value(metadata %"class.__gnu_cxx::__normal_iterator"* %this, metadata !2479, metadata !DIExpression()), !dbg !2481
  %_M_current = getelementptr inbounds %"class.__gnu_cxx::__normal_iterator", %"class.__gnu_cxx::__normal_iterator"* %this, i32 0, i32 0, !dbg !2482
  %i = load i32*, i32** %_M_current, align 8, !dbg !2483
  %incdec.ptr = getelementptr inbounds i32, i32* %i, i32 1, !dbg !2483
  store i32* %incdec.ptr, i32** %_M_current, align 8, !dbg !2483
  ret %"class.__gnu_cxx::__normal_iterator"* %this, !dbg !2484
}

declare noundef nonnull align 8 dereferenceable(8) %"class.std::basic_ostream"* @_ZNSolsEPFRSoS_E(%"class.std::basic_ostream"* noundef nonnull align 8 dereferenceable(8), %"class.std::basic_ostream"* (%"class.std::basic_ostream"*)* noundef) #1

declare noundef nonnull align 8 dereferenceable(8) %"class.std::basic_ostream"* @_ZSt4endlIcSt11char_traitsIcEERSt13basic_ostreamIT_T0_ES6_(%"class.std::basic_ostream"* noundef nonnull align 8 dereferenceable(8)) #1

; Function Attrs: noinline nounwind uwtable
define linkonce_odr dso_local void @_ZNSt6vectorIiSaIiEED2Ev(%"class.std::vector"* noundef nonnull align 8 dereferenceable(24) %this) unnamed_addr #7 comdat align 2 personality i8* bitcast (i32 (...)* @__gxx_personality_v0 to i8*) !dbg !2485 {
entry:
  call void @llvm.dbg.value(metadata %"class.std::vector"* %this, metadata !2486, metadata !DIExpression()), !dbg !2487
  %i = bitcast %"class.std::vector"* %this to %"struct.std::_Vector_base"*, !dbg !2488
  %_M_impl = getelementptr inbounds %"struct.std::_Vector_base", %"struct.std::_Vector_base"* %i, i32 0, i32 0, !dbg !2488
  %i1 = bitcast %"struct.std::_Vector_base<int, std::allocator<int>>::_Vector_impl"* %_M_impl to %"struct.std::_Vector_base<int, std::allocator<int>>::_Vector_impl_data"*, !dbg !2490
  %_M_start = getelementptr inbounds %"struct.std::_Vector_base<int, std::allocator<int>>::_Vector_impl_data", %"struct.std::_Vector_base<int, std::allocator<int>>::_Vector_impl_data"* %i1, i32 0, i32 0, !dbg !2491
  %i2 = load i32*, i32** %_M_start, align 8, !dbg !2491
  %i3 = bitcast %"class.std::vector"* %this to %"struct.std::_Vector_base"*, !dbg !2492
  %_M_impl2 = getelementptr inbounds %"struct.std::_Vector_base", %"struct.std::_Vector_base"* %i3, i32 0, i32 0, !dbg !2492
  %i4 = bitcast %"struct.std::_Vector_base<int, std::allocator<int>>::_Vector_impl"* %_M_impl2 to %"struct.std::_Vector_base<int, std::allocator<int>>::_Vector_impl_data"*, !dbg !2493
  %_M_finish = getelementptr inbounds %"struct.std::_Vector_base<int, std::allocator<int>>::_Vector_impl_data", %"struct.std::_Vector_base<int, std::allocator<int>>::_Vector_impl_data"* %i4, i32 0, i32 1, !dbg !2494
  %i5 = load i32*, i32** %_M_finish, align 8, !dbg !2494
  %i6 = bitcast %"class.std::vector"* %this to %"struct.std::_Vector_base"*, !dbg !2495
  %call = call noundef nonnull align 1 dereferenceable(1) %"class.std::allocator"* @_ZNSt12_Vector_baseIiSaIiEE19_M_get_Tp_allocatorEv(%"struct.std::_Vector_base"* noundef nonnull align 8 dereferenceable(24) %i6) #3, !dbg !2495
  invoke void @_ZSt8_DestroyIPiiEvT_S1_RSaIT0_E(i32* noundef %i2, i32* noundef %i5, %"class.std::allocator"* noundef nonnull align 1 dereferenceable(1) %call)
          to label %invoke.cont unwind label %lpad, !dbg !2496

invoke.cont:                                      ; preds = %entry
  %i7 = bitcast %"class.std::vector"* %this to %"struct.std::_Vector_base"*, !dbg !2497
  call void @_ZNSt12_Vector_baseIiSaIiEED2Ev(%"struct.std::_Vector_base"* noundef nonnull align 8 dereferenceable(24) %i7) #3, !dbg !2497
  ret void, !dbg !2498

lpad:                                             ; preds = %entry
  %i8 = landingpad { i8*, i32 }
          catch i8* null, !dbg !2497
  %i9 = extractvalue { i8*, i32 } %i8, 0, !dbg !2497
  %i10 = extractvalue { i8*, i32 } %i8, 1, !dbg !2497
  %i11 = bitcast %"class.std::vector"* %this to %"struct.std::_Vector_base"*, !dbg !2497
  call void @_ZNSt12_Vector_baseIiSaIiEED2Ev(%"struct.std::_Vector_base"* noundef nonnull align 8 dereferenceable(24) %i11) #3, !dbg !2497
  br label %terminate.handler, !dbg !2497

terminate.handler:                                ; preds = %lpad
  call void @__clang_call_terminate(i8* %i9) #15, !dbg !2497
  unreachable, !dbg !2497
}

; Function Attrs: mustprogress noinline norecurse uwtable
define dso_local noundef i32 @main(i32 noundef %argc, i8** noundef %argv) #8 !dbg !2499 {
entry:
  %t = alloca i32, align 4
  call void @llvm.dbg.value(metadata i32 %argc, metadata !2502, metadata !DIExpression()), !dbg !2503
  call void @llvm.dbg.value(metadata i8** %argv, metadata !2504, metadata !DIExpression()), !dbg !2503
  call void @llvm.dbg.declare(metadata i32* %t, metadata !2505, metadata !DIExpression()), !dbg !2506
  %call = call noundef nonnull align 8 dereferenceable(16) %"class.std::basic_istream"* @_ZNSirsERi(%"class.std::basic_istream"* noundef nonnull align 8 dereferenceable(16) @_ZSt3cin, i32* noundef nonnull align 4 dereferenceable(4) %t), !dbg !2507
  br label %while.cond, !dbg !2508

while.cond:                                       ; preds = %while.body, %entry
  %i = load i32, i32* %t, align 4, !dbg !2509
  %dec = add nsw i32 %i, -1, !dbg !2509
  store i32 %dec, i32* %t, align 4, !dbg !2509
  %tobool = icmp ne i32 %i, 0, !dbg !2510
  br i1 %tobool, label %while.body, label %while.end, !dbg !2508

while.body:                                       ; preds = %while.cond
  call void @_Z8testcasev(), !dbg !2511
  br label %while.cond, !dbg !2508, !llvm.loop !2513

while.end:                                        ; preds = %while.cond
  ret i32 0, !dbg !2515
}

; Function Attrs: noinline nounwind uwtable
define linkonce_odr dso_local void @_ZN9__gnu_cxx13new_allocatorIiEC2Ev(%"class.__gnu_cxx::new_allocator"* noundef nonnull align 1 dereferenceable(1) %this) unnamed_addr #7 comdat align 2 !dbg !2516 {
entry:
  call void @llvm.dbg.value(metadata %"class.__gnu_cxx::new_allocator"* %this, metadata !2517, metadata !DIExpression()), !dbg !2519
  ret void, !dbg !2520
}

; Function Attrs: noinline nounwind uwtable
define linkonce_odr dso_local void @_ZN9__gnu_cxx13new_allocatorIiED2Ev(%"class.__gnu_cxx::new_allocator"* noundef nonnull align 1 dereferenceable(1) %this) unnamed_addr #7 comdat align 2 !dbg !2521 {
entry:
  call void @llvm.dbg.value(metadata %"class.__gnu_cxx::new_allocator"* %this, metadata !2522, metadata !DIExpression()), !dbg !2523
  ret void, !dbg !2524
}

; Function Attrs: noinline nounwind uwtable
define linkonce_odr dso_local void @_ZNSt16reverse_iteratorIN9__gnu_cxx17__normal_iteratorIPiSt6vectorIiSaIiEEEEEC2ES6_(%"class.std::reverse_iterator"* noundef nonnull align 8 dereferenceable(8) %this, i32* %__x.coerce) unnamed_addr #7 comdat align 2 !dbg !2525 {
entry:
  %__x = alloca %"class.__gnu_cxx::__normal_iterator", align 8
  %coerce.dive = getelementptr inbounds %"class.__gnu_cxx::__normal_iterator", %"class.__gnu_cxx::__normal_iterator"* %__x, i32 0, i32 0
  store i32* %__x.coerce, i32** %coerce.dive, align 8
  call void @llvm.dbg.value(metadata %"class.std::reverse_iterator"* %this, metadata !2526, metadata !DIExpression()), !dbg !2527
  call void @llvm.dbg.declare(metadata %"class.__gnu_cxx::__normal_iterator"* %__x, metadata !2528, metadata !DIExpression()), !dbg !2529
  %i = bitcast %"class.std::reverse_iterator"* %this to %"struct.std::iterator"*, !dbg !2530
  %current = getelementptr inbounds %"class.std::reverse_iterator", %"class.std::reverse_iterator"* %this, i32 0, i32 0, !dbg !2531
  %i1 = bitcast %"class.__gnu_cxx::__normal_iterator"* %current to i8*, !dbg !2531
  %i2 = bitcast %"class.__gnu_cxx::__normal_iterator"* %__x to i8*, !dbg !2531
  call void @llvm.memcpy.p0i8.p0i8.i64(i8* align 8 %i1, i8* align 8 %i2, i64 8, i1 false), !dbg !2531
  ret void, !dbg !2532
}

; Function Attrs: noinline noreturn nounwind
define linkonce_odr hidden void @__clang_call_terminate(i8* %arg) #9 comdat {
bb:
  %i = call i8* @__cxa_begin_catch(i8* %arg) #3
  call void @_ZSt9terminatev() #15
  unreachable
}

declare i8* @__cxa_begin_catch(i8*)

declare void @_ZSt9terminatev()

; Function Attrs: argmemonly nofree nounwind willreturn
declare void @llvm.memcpy.p0i8.p0i8.i64(i8* noalias nocapture writeonly, i8* noalias nocapture readonly, i64, i1 immarg) #10

; Function Attrs: mustprogress noinline uwtable
define linkonce_odr dso_local void @_ZSt17__is_sorted_untilISt16reverse_iteratorIN9__gnu_cxx17__normal_iteratorIPiSt6vectorIiSaIiEEEEENS1_5__ops15_Iter_less_iterEET_SB_SB_T0_(%"class.std::reverse_iterator"* noalias sret(%"class.std::reverse_iterator") align 8 %agg.result, %"class.std::reverse_iterator"* noundef %__first, %"class.std::reverse_iterator"* noundef %__last) #4 comdat !dbg !2533 {
entry:
  %__comp = alloca %"struct.__gnu_cxx::__ops::_Iter_less_iter", align 1
  %__next = alloca %"class.std::reverse_iterator", align 8
  %agg.tmp = alloca %"class.std::reverse_iterator", align 8
  %agg.tmp3 = alloca %"class.std::reverse_iterator", align 8
  %i = bitcast %"class.std::reverse_iterator"* %agg.result to i8*
  call void @llvm.dbg.declare(metadata %"class.std::reverse_iterator"* %__first, metadata !2538, metadata !DIExpression()), !dbg !2539
  call void @llvm.dbg.declare(metadata %"class.std::reverse_iterator"* %__last, metadata !2540, metadata !DIExpression()), !dbg !2541
  call void @llvm.dbg.declare(metadata %"struct.__gnu_cxx::__ops::_Iter_less_iter"* %__comp, metadata !2542, metadata !DIExpression()), !dbg !2543
  %call = call noundef zeroext i1 @_ZSteqIN9__gnu_cxx17__normal_iteratorIPiSt6vectorIiSaIiEEEEEbRKSt16reverse_iteratorIT_ESB_(%"class.std::reverse_iterator"* noundef nonnull align 8 dereferenceable(8) %__first, %"class.std::reverse_iterator"* noundef nonnull align 8 dereferenceable(8) %__last), !dbg !2544
  br i1 %call, label %if.then, label %if.end, !dbg !2546

if.then:                                          ; preds = %entry
  call void @_ZNSt16reverse_iteratorIN9__gnu_cxx17__normal_iteratorIPiSt6vectorIiSaIiEEEEEC2ERKS7_(%"class.std::reverse_iterator"* noundef nonnull align 8 dereferenceable(8) %agg.result, %"class.std::reverse_iterator"* noundef nonnull align 8 dereferenceable(8) %__last), !dbg !2547
  br label %return, !dbg !2548

if.end:                                           ; preds = %entry
  call void @llvm.dbg.declare(metadata %"class.std::reverse_iterator"* %__next, metadata !2549, metadata !DIExpression()), !dbg !2550
  call void @_ZNSt16reverse_iteratorIN9__gnu_cxx17__normal_iteratorIPiSt6vectorIiSaIiEEEEEC2ERKS7_(%"class.std::reverse_iterator"* noundef nonnull align 8 dereferenceable(8) %__next, %"class.std::reverse_iterator"* noundef nonnull align 8 dereferenceable(8) %__first), !dbg !2551
  %call1 = call noundef nonnull align 8 dereferenceable(8) %"class.std::reverse_iterator"* @_ZNSt16reverse_iteratorIN9__gnu_cxx17__normal_iteratorIPiSt6vectorIiSaIiEEEEEppEv(%"class.std::reverse_iterator"* noundef nonnull align 8 dereferenceable(8) %__next), !dbg !2552
  br label %for.cond, !dbg !2552

for.cond:                                         ; preds = %for.inc, %if.end
  %call2 = call noundef zeroext i1 @_ZStneIN9__gnu_cxx17__normal_iteratorIPiSt6vectorIiSaIiEEEEEbRKSt16reverse_iteratorIT_ESB_(%"class.std::reverse_iterator"* noundef nonnull align 8 dereferenceable(8) %__next, %"class.std::reverse_iterator"* noundef nonnull align 8 dereferenceable(8) %__last), !dbg !2554
  br i1 %call2, label %for.body, label %for.end, !dbg !2556

for.body:                                         ; preds = %for.cond
  call void @_ZNSt16reverse_iteratorIN9__gnu_cxx17__normal_iteratorIPiSt6vectorIiSaIiEEEEEC2ERKS7_(%"class.std::reverse_iterator"* noundef nonnull align 8 dereferenceable(8) %agg.tmp, %"class.std::reverse_iterator"* noundef nonnull align 8 dereferenceable(8) %__next), !dbg !2557
  call void @_ZNSt16reverse_iteratorIN9__gnu_cxx17__normal_iteratorIPiSt6vectorIiSaIiEEEEEC2ERKS7_(%"class.std::reverse_iterator"* noundef nonnull align 8 dereferenceable(8) %agg.tmp3, %"class.std::reverse_iterator"* noundef nonnull align 8 dereferenceable(8) %__first), !dbg !2559
  %call4 = call noundef zeroext i1 @_ZNK9__gnu_cxx5__ops15_Iter_less_iterclISt16reverse_iteratorINS_17__normal_iteratorIPiSt6vectorIiSaIiEEEEESA_EEbT_T0_(%"struct.__gnu_cxx::__ops::_Iter_less_iter"* noundef nonnull align 1 dereferenceable(1) %__comp, %"class.std::reverse_iterator"* noundef %agg.tmp, %"class.std::reverse_iterator"* noundef %agg.tmp3), !dbg !2560
  br i1 %call4, label %if.then5, label %if.end6, !dbg !2561

if.then5:                                         ; preds = %for.body
  call void @_ZNSt16reverse_iteratorIN9__gnu_cxx17__normal_iteratorIPiSt6vectorIiSaIiEEEEEC2ERKS7_(%"class.std::reverse_iterator"* noundef nonnull align 8 dereferenceable(8) %agg.result, %"class.std::reverse_iterator"* noundef nonnull align 8 dereferenceable(8) %__next), !dbg !2562
  br label %return, !dbg !2563

if.end6:                                          ; preds = %for.body
  br label %for.inc, !dbg !2564

for.inc:                                          ; preds = %if.end6
  %i1 = bitcast %"class.std::reverse_iterator"* %__first to i8*, !dbg !2565
  %i2 = bitcast %"class.std::reverse_iterator"* %__next to i8*, !dbg !2565
  call void @llvm.memcpy.p0i8.p0i8.i64(i8* align 8 %i1, i8* align 8 %i2, i64 8, i1 false), !dbg !2565
  %call7 = call noundef nonnull align 8 dereferenceable(8) %"class.std::reverse_iterator"* @_ZNSt16reverse_iteratorIN9__gnu_cxx17__normal_iteratorIPiSt6vectorIiSaIiEEEEEppEv(%"class.std::reverse_iterator"* noundef nonnull align 8 dereferenceable(8) %__next), !dbg !2566
  br label %for.cond, !dbg !2567, !llvm.loop !2568

for.end:                                          ; preds = %for.cond
  call void @_ZNSt16reverse_iteratorIN9__gnu_cxx17__normal_iteratorIPiSt6vectorIiSaIiEEEEEC2ERKS7_(%"class.std::reverse_iterator"* noundef nonnull align 8 dereferenceable(8) %agg.result, %"class.std::reverse_iterator"* noundef nonnull align 8 dereferenceable(8) %__next), !dbg !2570
  br label %return, !dbg !2571

return:                                           ; preds = %for.end, %if.then5, %if.then
  ret void, !dbg !2572
}

; Function Attrs: mustprogress noinline nounwind uwtable
define linkonce_odr dso_local void @_ZN9__gnu_cxx5__ops16__iter_less_iterEv() #6 comdat !dbg !2573 {
entry:
  ret void, !dbg !2576
}

; Function Attrs: mustprogress noinline nounwind uwtable
define linkonce_odr dso_local noundef nonnull align 8 dereferenceable(8) %"class.std::reverse_iterator"* @_ZNSt16reverse_iteratorIN9__gnu_cxx17__normal_iteratorIPiSt6vectorIiSaIiEEEEEppEv(%"class.std::reverse_iterator"* noundef nonnull align 8 dereferenceable(8) %this) #6 comdat align 2 !dbg !2577 {
entry:
  call void @llvm.dbg.value(metadata %"class.std::reverse_iterator"* %this, metadata !2578, metadata !DIExpression()), !dbg !2579
  %current = getelementptr inbounds %"class.std::reverse_iterator", %"class.std::reverse_iterator"* %this, i32 0, i32 0, !dbg !2580
  %call = call noundef nonnull align 8 dereferenceable(8) %"class.__gnu_cxx::__normal_iterator"* @_ZN9__gnu_cxx17__normal_iteratorIPiSt6vectorIiSaIiEEEmmEv(%"class.__gnu_cxx::__normal_iterator"* noundef nonnull align 8 dereferenceable(8) %current) #3, !dbg !2581
  ret %"class.std::reverse_iterator"* %this, !dbg !2582
}

; Function Attrs: mustprogress noinline uwtable
define linkonce_odr dso_local noundef zeroext i1 @_ZStneIN9__gnu_cxx17__normal_iteratorIPiSt6vectorIiSaIiEEEEEbRKSt16reverse_iteratorIT_ESB_(%"class.std::reverse_iterator"* noundef nonnull align 8 dereferenceable(8) %__x, %"class.std::reverse_iterator"* noundef nonnull align 8 dereferenceable(8) %__y) #4 comdat !dbg !2583 {
entry:
  call void @llvm.dbg.value(metadata %"class.std::reverse_iterator"* %__x, metadata !2584, metadata !DIExpression()), !dbg !2585
  call void @llvm.dbg.value(metadata %"class.std::reverse_iterator"* %__y, metadata !2586, metadata !DIExpression()), !dbg !2585
  %call = call noundef zeroext i1 @_ZSteqIN9__gnu_cxx17__normal_iteratorIPiSt6vectorIiSaIiEEEEEbRKSt16reverse_iteratorIT_ESB_(%"class.std::reverse_iterator"* noundef nonnull align 8 dereferenceable(8) %__x, %"class.std::reverse_iterator"* noundef nonnull align 8 dereferenceable(8) %__y), !dbg !2587
  %lnot = xor i1 %call, true, !dbg !2588
  ret i1 %lnot, !dbg !2589
}

; Function Attrs: mustprogress noinline uwtable
define linkonce_odr dso_local noundef zeroext i1 @_ZNK9__gnu_cxx5__ops15_Iter_less_iterclISt16reverse_iteratorINS_17__normal_iteratorIPiSt6vectorIiSaIiEEEEESA_EEbT_T0_(%"struct.__gnu_cxx::__ops::_Iter_less_iter"* noundef nonnull align 1 dereferenceable(1) %this, %"class.std::reverse_iterator"* noundef %__it1, %"class.std::reverse_iterator"* noundef %__it2) #4 comdat align 2 !dbg !2590 {
entry:
  call void @llvm.dbg.value(metadata %"struct.__gnu_cxx::__ops::_Iter_less_iter"* %this, metadata !2599, metadata !DIExpression()), !dbg !2601
  call void @llvm.dbg.declare(metadata %"class.std::reverse_iterator"* %__it1, metadata !2602, metadata !DIExpression()), !dbg !2603
  call void @llvm.dbg.declare(metadata %"class.std::reverse_iterator"* %__it2, metadata !2604, metadata !DIExpression()), !dbg !2605
  %call = call noundef nonnull align 4 dereferenceable(4) i32* @_ZNKSt16reverse_iteratorIN9__gnu_cxx17__normal_iteratorIPiSt6vectorIiSaIiEEEEEdeEv(%"class.std::reverse_iterator"* noundef nonnull align 8 dereferenceable(8) %__it1), !dbg !2606
  %i = load i32, i32* %call, align 4, !dbg !2606
  %call2 = call noundef nonnull align 4 dereferenceable(4) i32* @_ZNKSt16reverse_iteratorIN9__gnu_cxx17__normal_iteratorIPiSt6vectorIiSaIiEEEEEdeEv(%"class.std::reverse_iterator"* noundef nonnull align 8 dereferenceable(8) %__it2), !dbg !2607
  %i1 = load i32, i32* %call2, align 4, !dbg !2607
  %cmp = icmp slt i32 %i, %i1, !dbg !2608
  ret i1 %cmp, !dbg !2609
}

; Function Attrs: mustprogress noinline nounwind uwtable
define linkonce_odr dso_local noundef nonnull align 8 dereferenceable(8) %"class.__gnu_cxx::__normal_iterator"* @_ZN9__gnu_cxx17__normal_iteratorIPiSt6vectorIiSaIiEEEmmEv(%"class.__gnu_cxx::__normal_iterator"* noundef nonnull align 8 dereferenceable(8) %this) #6 comdat align 2 !dbg !2610 {
entry:
  call void @llvm.dbg.value(metadata %"class.__gnu_cxx::__normal_iterator"* %this, metadata !2611, metadata !DIExpression()), !dbg !2612
  %_M_current = getelementptr inbounds %"class.__gnu_cxx::__normal_iterator", %"class.__gnu_cxx::__normal_iterator"* %this, i32 0, i32 0, !dbg !2613
  %i = load i32*, i32** %_M_current, align 8, !dbg !2614
  %incdec.ptr = getelementptr inbounds i32, i32* %i, i32 -1, !dbg !2614
  store i32* %incdec.ptr, i32** %_M_current, align 8, !dbg !2614
  ret %"class.__gnu_cxx::__normal_iterator"* %this, !dbg !2615
}

; Function Attrs: mustprogress noinline nounwind uwtable
define linkonce_odr dso_local noundef zeroext i1 @_ZN9__gnu_cxxeqIPiSt6vectorIiSaIiEEEEbRKNS_17__normal_iteratorIT_T0_EESA_(%"class.__gnu_cxx::__normal_iterator"* noundef nonnull align 8 dereferenceable(8) %__lhs, %"class.__gnu_cxx::__normal_iterator"* noundef nonnull align 8 dereferenceable(8) %__rhs) #6 comdat !dbg !2616 {
entry:
  call void @llvm.dbg.value(metadata %"class.__gnu_cxx::__normal_iterator"* %__lhs, metadata !2617, metadata !DIExpression()), !dbg !2618
  call void @llvm.dbg.value(metadata %"class.__gnu_cxx::__normal_iterator"* %__rhs, metadata !2619, metadata !DIExpression()), !dbg !2618
  %call = call noundef nonnull align 8 dereferenceable(8) i32** @_ZNK9__gnu_cxx17__normal_iteratorIPiSt6vectorIiSaIiEEE4baseEv(%"class.__gnu_cxx::__normal_iterator"* noundef nonnull align 8 dereferenceable(8) %__lhs) #3, !dbg !2620
  %i1 = load i32*, i32** %call, align 8, !dbg !2620
  %call1 = call noundef nonnull align 8 dereferenceable(8) i32** @_ZNK9__gnu_cxx17__normal_iteratorIPiSt6vectorIiSaIiEEE4baseEv(%"class.__gnu_cxx::__normal_iterator"* noundef nonnull align 8 dereferenceable(8) %__rhs) #3, !dbg !2621
  %i3 = load i32*, i32** %call1, align 8, !dbg !2621
  %cmp = icmp eq i32* %i1, %i3, !dbg !2622
  ret i1 %cmp, !dbg !2623
}

; Function Attrs: mustprogress noinline nounwind uwtable
define linkonce_odr dso_local i32* @_ZNKSt16reverse_iteratorIN9__gnu_cxx17__normal_iteratorIPiSt6vectorIiSaIiEEEEE4baseEv(%"class.std::reverse_iterator"* noundef nonnull align 8 dereferenceable(8) %this) #6 comdat align 2 !dbg !2624 {
entry:
  %retval = alloca %"class.__gnu_cxx::__normal_iterator", align 8
  call void @llvm.dbg.value(metadata %"class.std::reverse_iterator"* %this, metadata !2625, metadata !DIExpression()), !dbg !2626
  %current = getelementptr inbounds %"class.std::reverse_iterator", %"class.std::reverse_iterator"* %this, i32 0, i32 0, !dbg !2627
  %i = bitcast %"class.__gnu_cxx::__normal_iterator"* %retval to i8*, !dbg !2627
  %i1 = bitcast %"class.__gnu_cxx::__normal_iterator"* %current to i8*, !dbg !2627
  call void @llvm.memcpy.p0i8.p0i8.i64(i8* align 8 %i, i8* align 8 %i1, i64 8, i1 false), !dbg !2627
  %coerce.dive = getelementptr inbounds %"class.__gnu_cxx::__normal_iterator", %"class.__gnu_cxx::__normal_iterator"* %retval, i32 0, i32 0, !dbg !2628
  %i2 = load i32*, i32** %coerce.dive, align 8, !dbg !2628
  ret i32* %i2, !dbg !2628
}

; Function Attrs: mustprogress noinline nounwind uwtable
define linkonce_odr dso_local noundef nonnull align 8 dereferenceable(8) i32** @_ZNK9__gnu_cxx17__normal_iteratorIPiSt6vectorIiSaIiEEE4baseEv(%"class.__gnu_cxx::__normal_iterator"* noundef nonnull align 8 dereferenceable(8) %this) #6 comdat align 2 !dbg !2629 {
entry:
  call void @llvm.dbg.value(metadata %"class.__gnu_cxx::__normal_iterator"* %this, metadata !2630, metadata !DIExpression()), !dbg !2631
  %_M_current = getelementptr inbounds %"class.__gnu_cxx::__normal_iterator", %"class.__gnu_cxx::__normal_iterator"* %this, i32 0, i32 0, !dbg !2632
  ret i32** %_M_current, !dbg !2633
}

; Function Attrs: mustprogress noinline uwtable
define linkonce_odr dso_local void @_ZSt9__reverseISt16reverse_iteratorIN9__gnu_cxx17__normal_iteratorIPiSt6vectorIiSaIiEEEEEEvT_S9_St26random_access_iterator_tag(%"class.std::reverse_iterator"* noundef %__first, %"class.std::reverse_iterator"* noundef %__last) #4 comdat !dbg !2634 {
entry:
  %agg.tmp = alloca %"class.std::reverse_iterator", align 8
  %agg.tmp3 = alloca %"class.std::reverse_iterator", align 8
  call void @llvm.dbg.declare(metadata %"class.std::reverse_iterator"* %__first, metadata !2639, metadata !DIExpression()), !dbg !2640
  call void @llvm.dbg.declare(metadata %"class.std::reverse_iterator"* %__last, metadata !2641, metadata !DIExpression()), !dbg !2642
  call void @llvm.dbg.declare(metadata %"struct.std::random_access_iterator_tag"* undef, metadata !2643, metadata !DIExpression()), !dbg !2644
  %call = call noundef zeroext i1 @_ZSteqIN9__gnu_cxx17__normal_iteratorIPiSt6vectorIiSaIiEEEEEbRKSt16reverse_iteratorIT_ESB_(%"class.std::reverse_iterator"* noundef nonnull align 8 dereferenceable(8) %__first, %"class.std::reverse_iterator"* noundef nonnull align 8 dereferenceable(8) %__last), !dbg !2645
  br i1 %call, label %if.then, label %if.end, !dbg !2647

if.then:                                          ; preds = %entry
  br label %while.end, !dbg !2648

if.end:                                           ; preds = %entry
  %call1 = call noundef nonnull align 8 dereferenceable(8) %"class.std::reverse_iterator"* @_ZNSt16reverse_iteratorIN9__gnu_cxx17__normal_iteratorIPiSt6vectorIiSaIiEEEEEmmEv(%"class.std::reverse_iterator"* noundef nonnull align 8 dereferenceable(8) %__last), !dbg !2649
  br label %while.cond, !dbg !2650

while.cond:                                       ; preds = %while.body, %if.end
  %call2 = call noundef zeroext i1 @_ZStltIN9__gnu_cxx17__normal_iteratorIPiSt6vectorIiSaIiEEEEEbRKSt16reverse_iteratorIT_ESB_(%"class.std::reverse_iterator"* noundef nonnull align 8 dereferenceable(8) %__first, %"class.std::reverse_iterator"* noundef nonnull align 8 dereferenceable(8) %__last), !dbg !2651
  br i1 %call2, label %while.body, label %while.end, !dbg !2650

while.body:                                       ; preds = %while.cond
  call void @_ZNSt16reverse_iteratorIN9__gnu_cxx17__normal_iteratorIPiSt6vectorIiSaIiEEEEEC2ERKS7_(%"class.std::reverse_iterator"* noundef nonnull align 8 dereferenceable(8) %agg.tmp, %"class.std::reverse_iterator"* noundef nonnull align 8 dereferenceable(8) %__first), !dbg !2652
  call void @_ZNSt16reverse_iteratorIN9__gnu_cxx17__normal_iteratorIPiSt6vectorIiSaIiEEEEEC2ERKS7_(%"class.std::reverse_iterator"* noundef nonnull align 8 dereferenceable(8) %agg.tmp3, %"class.std::reverse_iterator"* noundef nonnull align 8 dereferenceable(8) %__last), !dbg !2654
  call void @_ZSt9iter_swapISt16reverse_iteratorIN9__gnu_cxx17__normal_iteratorIPiSt6vectorIiSaIiEEEEES8_EvT_T0_(%"class.std::reverse_iterator"* noundef %agg.tmp, %"class.std::reverse_iterator"* noundef %agg.tmp3), !dbg !2655
  %call4 = call noundef nonnull align 8 dereferenceable(8) %"class.std::reverse_iterator"* @_ZNSt16reverse_iteratorIN9__gnu_cxx17__normal_iteratorIPiSt6vectorIiSaIiEEEEEppEv(%"class.std::reverse_iterator"* noundef nonnull align 8 dereferenceable(8) %__first), !dbg !2656
  %call5 = call noundef nonnull align 8 dereferenceable(8) %"class.std::reverse_iterator"* @_ZNSt16reverse_iteratorIN9__gnu_cxx17__normal_iteratorIPiSt6vectorIiSaIiEEEEEmmEv(%"class.std::reverse_iterator"* noundef nonnull align 8 dereferenceable(8) %__last), !dbg !2657
  br label %while.cond, !dbg !2650, !llvm.loop !2658

while.end:                                        ; preds = %while.cond, %if.then
  ret void, !dbg !2660
}

; Function Attrs: mustprogress noinline nounwind uwtable
define linkonce_odr dso_local void @_ZSt19__iterator_categoryISt16reverse_iteratorIN9__gnu_cxx17__normal_iteratorIPiSt6vectorIiSaIiEEEEEENSt15iterator_traitsIT_E17iterator_categoryERKSA_(%"class.std::reverse_iterator"* noundef nonnull align 8 dereferenceable(8) %arg) #6 comdat !dbg !2661 {
entry:
  call void @llvm.dbg.value(metadata %"class.std::reverse_iterator"* %arg, metadata !2671, metadata !DIExpression()), !dbg !2672
  ret void, !dbg !2673
}

; Function Attrs: mustprogress noinline nounwind uwtable
define linkonce_odr dso_local noundef nonnull align 8 dereferenceable(8) %"class.std::reverse_iterator"* @_ZNSt16reverse_iteratorIN9__gnu_cxx17__normal_iteratorIPiSt6vectorIiSaIiEEEEEmmEv(%"class.std::reverse_iterator"* noundef nonnull align 8 dereferenceable(8) %this) #6 comdat align 2 !dbg !2674 {
entry:
  call void @llvm.dbg.value(metadata %"class.std::reverse_iterator"* %this, metadata !2675, metadata !DIExpression()), !dbg !2676
  %current = getelementptr inbounds %"class.std::reverse_iterator", %"class.std::reverse_iterator"* %this, i32 0, i32 0, !dbg !2677
  %call = call noundef nonnull align 8 dereferenceable(8) %"class.__gnu_cxx::__normal_iterator"* @_ZN9__gnu_cxx17__normal_iteratorIPiSt6vectorIiSaIiEEEppEv(%"class.__gnu_cxx::__normal_iterator"* noundef nonnull align 8 dereferenceable(8) %current) #3, !dbg !2678
  ret %"class.std::reverse_iterator"* %this, !dbg !2679
}

; Function Attrs: mustprogress noinline nounwind uwtable
define linkonce_odr dso_local noundef zeroext i1 @_ZStltIN9__gnu_cxx17__normal_iteratorIPiSt6vectorIiSaIiEEEEEbRKSt16reverse_iteratorIT_ESB_(%"class.std::reverse_iterator"* noundef nonnull align 8 dereferenceable(8) %__x, %"class.std::reverse_iterator"* noundef nonnull align 8 dereferenceable(8) %__y) #6 comdat !dbg !2680 {
entry:
  %ref.tmp = alloca %"class.__gnu_cxx::__normal_iterator", align 8
  %ref.tmp1 = alloca %"class.__gnu_cxx::__normal_iterator", align 8
  call void @llvm.dbg.value(metadata %"class.std::reverse_iterator"* %__x, metadata !2681, metadata !DIExpression()), !dbg !2682
  call void @llvm.dbg.value(metadata %"class.std::reverse_iterator"* %__y, metadata !2683, metadata !DIExpression()), !dbg !2682
  %call = call i32* @_ZNKSt16reverse_iteratorIN9__gnu_cxx17__normal_iteratorIPiSt6vectorIiSaIiEEEEE4baseEv(%"class.std::reverse_iterator"* noundef nonnull align 8 dereferenceable(8) %__y), !dbg !2684
  %coerce.dive = getelementptr inbounds %"class.__gnu_cxx::__normal_iterator", %"class.__gnu_cxx::__normal_iterator"* %ref.tmp, i32 0, i32 0, !dbg !2684
  store i32* %call, i32** %coerce.dive, align 8, !dbg !2684
  %call2 = call i32* @_ZNKSt16reverse_iteratorIN9__gnu_cxx17__normal_iteratorIPiSt6vectorIiSaIiEEEEE4baseEv(%"class.std::reverse_iterator"* noundef nonnull align 8 dereferenceable(8) %__x), !dbg !2685
  %coerce.dive3 = getelementptr inbounds %"class.__gnu_cxx::__normal_iterator", %"class.__gnu_cxx::__normal_iterator"* %ref.tmp1, i32 0, i32 0, !dbg !2685
  store i32* %call2, i32** %coerce.dive3, align 8, !dbg !2685
  %call4 = call noundef zeroext i1 @_ZN9__gnu_cxxltIPiSt6vectorIiSaIiEEEEbRKNS_17__normal_iteratorIT_T0_EESA_(%"class.__gnu_cxx::__normal_iterator"* noundef nonnull align 8 dereferenceable(8) %ref.tmp, %"class.__gnu_cxx::__normal_iterator"* noundef nonnull align 8 dereferenceable(8) %ref.tmp1) #3, !dbg !2686
  ret i1 %call4, !dbg !2687
}

; Function Attrs: mustprogress noinline uwtable
define linkonce_odr dso_local void @_ZSt9iter_swapISt16reverse_iteratorIN9__gnu_cxx17__normal_iteratorIPiSt6vectorIiSaIiEEEEES8_EvT_T0_(%"class.std::reverse_iterator"* noundef %__a, %"class.std::reverse_iterator"* noundef %__b) #4 comdat !dbg !2688 {
entry:
  call void @llvm.dbg.declare(metadata %"class.std::reverse_iterator"* %__a, metadata !2693, metadata !DIExpression()), !dbg !2695
  call void @llvm.dbg.declare(metadata %"class.std::reverse_iterator"* %__b, metadata !2696, metadata !DIExpression()), !dbg !2697
  %call = call noundef nonnull align 4 dereferenceable(4) i32* @_ZNKSt16reverse_iteratorIN9__gnu_cxx17__normal_iteratorIPiSt6vectorIiSaIiEEEEEdeEv(%"class.std::reverse_iterator"* noundef nonnull align 8 dereferenceable(8) %__a), !dbg !2698
  %call1 = call noundef nonnull align 4 dereferenceable(4) i32* @_ZNKSt16reverse_iteratorIN9__gnu_cxx17__normal_iteratorIPiSt6vectorIiSaIiEEEEEdeEv(%"class.std::reverse_iterator"* noundef nonnull align 8 dereferenceable(8) %__b), !dbg !2699
  call void @_ZSt4swapIiENSt9enable_ifIXsr6__and_ISt6__not_ISt15__is_tuple_likeIT_EESt21is_move_constructibleIS3_ESt18is_move_assignableIS3_EEE5valueEvE4typeERS3_SC_(i32* noundef nonnull align 4 dereferenceable(4) %call, i32* noundef nonnull align 4 dereferenceable(4) %call1) #3, !dbg !2700
  ret void, !dbg !2701
}

; Function Attrs: mustprogress noinline nounwind uwtable
define linkonce_odr dso_local noundef zeroext i1 @_ZN9__gnu_cxxltIPiSt6vectorIiSaIiEEEEbRKNS_17__normal_iteratorIT_T0_EESA_(%"class.__gnu_cxx::__normal_iterator"* noundef nonnull align 8 dereferenceable(8) %__lhs, %"class.__gnu_cxx::__normal_iterator"* noundef nonnull align 8 dereferenceable(8) %__rhs) #6 comdat !dbg !2702 {
entry:
  call void @llvm.dbg.value(metadata %"class.__gnu_cxx::__normal_iterator"* %__lhs, metadata !2703, metadata !DIExpression()), !dbg !2704
  call void @llvm.dbg.value(metadata %"class.__gnu_cxx::__normal_iterator"* %__rhs, metadata !2705, metadata !DIExpression()), !dbg !2704
  %call = call noundef nonnull align 8 dereferenceable(8) i32** @_ZNK9__gnu_cxx17__normal_iteratorIPiSt6vectorIiSaIiEEE4baseEv(%"class.__gnu_cxx::__normal_iterator"* noundef nonnull align 8 dereferenceable(8) %__lhs) #3, !dbg !2706
  %i1 = load i32*, i32** %call, align 8, !dbg !2706
  %call1 = call noundef nonnull align 8 dereferenceable(8) i32** @_ZNK9__gnu_cxx17__normal_iteratorIPiSt6vectorIiSaIiEEE4baseEv(%"class.__gnu_cxx::__normal_iterator"* noundef nonnull align 8 dereferenceable(8) %__rhs) #3, !dbg !2707
  %i3 = load i32*, i32** %call1, align 8, !dbg !2707
  %cmp = icmp ult i32* %i1, %i3, !dbg !2708
  ret i1 %cmp, !dbg !2709
}

; Function Attrs: mustprogress noinline uwtable
define linkonce_odr dso_local void @_ZSt13__upper_boundISt16reverse_iteratorIN9__gnu_cxx17__normal_iteratorIPiSt6vectorIiSaIiEEEEEiNS1_5__ops14_Val_less_iterEET_SB_SB_RKT0_T1_(%"class.std::reverse_iterator"* noalias sret(%"class.std::reverse_iterator") align 8 %agg.result, %"class.std::reverse_iterator"* noundef %__first, %"class.std::reverse_iterator"* noundef %__last, i32* noundef nonnull align 4 dereferenceable(4) %__val) #4 comdat !dbg !2710 {
entry:
  %__comp = alloca %"struct.__gnu_cxx::__ops::_Val_less_iter", align 1
  %agg.tmp = alloca %"class.std::reverse_iterator", align 8
  %agg.tmp1 = alloca %"class.std::reverse_iterator", align 8
  %__middle = alloca %"class.std::reverse_iterator", align 8
  %agg.tmp2 = alloca %"class.std::reverse_iterator", align 8
  %i = bitcast %"class.std::reverse_iterator"* %agg.result to i8*
  call void @llvm.dbg.declare(metadata %"class.std::reverse_iterator"* %__first, metadata !2715, metadata !DIExpression()), !dbg !2716
  call void @llvm.dbg.declare(metadata %"class.std::reverse_iterator"* %__last, metadata !2717, metadata !DIExpression()), !dbg !2718
  call void @llvm.dbg.value(metadata i32* %__val, metadata !2719, metadata !DIExpression()), !dbg !2720
  call void @llvm.dbg.declare(metadata %"struct.__gnu_cxx::__ops::_Val_less_iter"* %__comp, metadata !2721, metadata !DIExpression()), !dbg !2722
  call void @_ZNSt16reverse_iteratorIN9__gnu_cxx17__normal_iteratorIPiSt6vectorIiSaIiEEEEEC2ERKS7_(%"class.std::reverse_iterator"* noundef nonnull align 8 dereferenceable(8) %agg.tmp, %"class.std::reverse_iterator"* noundef nonnull align 8 dereferenceable(8) %__first), !dbg !2723
  call void @_ZNSt16reverse_iteratorIN9__gnu_cxx17__normal_iteratorIPiSt6vectorIiSaIiEEEEEC2ERKS7_(%"class.std::reverse_iterator"* noundef nonnull align 8 dereferenceable(8) %agg.tmp1, %"class.std::reverse_iterator"* noundef nonnull align 8 dereferenceable(8) %__last), !dbg !2724
  %call = call noundef i64 @_ZSt8distanceISt16reverse_iteratorIN9__gnu_cxx17__normal_iteratorIPiSt6vectorIiSaIiEEEEEENSt15iterator_traitsIT_E15difference_typeESA_SA_(%"class.std::reverse_iterator"* noundef %agg.tmp, %"class.std::reverse_iterator"* noundef %agg.tmp1), !dbg !2725
  call void @llvm.dbg.value(metadata i64 %call, metadata !2726, metadata !DIExpression()), !dbg !2720
  br label %while.cond, !dbg !2729

while.cond:                                       ; preds = %if.end, %entry
  %__len.0 = phi i64 [ %call, %entry ], [ %__len.1, %if.end ], !dbg !2720
  call void @llvm.dbg.value(metadata i64 %__len.0, metadata !2726, metadata !DIExpression()), !dbg !2720
  %cmp = icmp sgt i64 %__len.0, 0, !dbg !2730
  br i1 %cmp, label %while.body, label %while.end, !dbg !2729

while.body:                                       ; preds = %while.cond
  %shr = ashr i64 %__len.0, 1, !dbg !2731
  call void @llvm.dbg.value(metadata i64 %shr, metadata !2733, metadata !DIExpression()), !dbg !2734
  call void @llvm.dbg.declare(metadata %"class.std::reverse_iterator"* %__middle, metadata !2735, metadata !DIExpression()), !dbg !2736
  call void @_ZNSt16reverse_iteratorIN9__gnu_cxx17__normal_iteratorIPiSt6vectorIiSaIiEEEEEC2ERKS7_(%"class.std::reverse_iterator"* noundef nonnull align 8 dereferenceable(8) %__middle, %"class.std::reverse_iterator"* noundef nonnull align 8 dereferenceable(8) %__first), !dbg !2737
  call void @_ZSt7advanceISt16reverse_iteratorIN9__gnu_cxx17__normal_iteratorIPiSt6vectorIiSaIiEEEEElEvRT_T0_(%"class.std::reverse_iterator"* noundef nonnull align 8 dereferenceable(8) %__middle, i64 noundef %shr), !dbg !2738
  call void @_ZNSt16reverse_iteratorIN9__gnu_cxx17__normal_iteratorIPiSt6vectorIiSaIiEEEEEC2ERKS7_(%"class.std::reverse_iterator"* noundef nonnull align 8 dereferenceable(8) %agg.tmp2, %"class.std::reverse_iterator"* noundef nonnull align 8 dereferenceable(8) %__middle), !dbg !2739
  %call3 = call noundef zeroext i1 @_ZNK9__gnu_cxx5__ops14_Val_less_iterclIKiSt16reverse_iteratorINS_17__normal_iteratorIPiSt6vectorIiSaIiEEEEEEEbRT_T0_(%"struct.__gnu_cxx::__ops::_Val_less_iter"* noundef nonnull align 1 dereferenceable(1) %__comp, i32* noundef nonnull align 4 dereferenceable(4) %__val, %"class.std::reverse_iterator"* noundef %agg.tmp2), !dbg !2741
  br i1 %call3, label %if.then, label %if.else, !dbg !2742

if.then:                                          ; preds = %while.body
  call void @llvm.dbg.value(metadata i64 %shr, metadata !2726, metadata !DIExpression()), !dbg !2720
  br label %if.end, !dbg !2743

if.else:                                          ; preds = %while.body
  %i6 = bitcast %"class.std::reverse_iterator"* %__first to i8*, !dbg !2744
  %i7 = bitcast %"class.std::reverse_iterator"* %__middle to i8*, !dbg !2744
  call void @llvm.memcpy.p0i8.p0i8.i64(i8* align 8 %i6, i8* align 8 %i7, i64 8, i1 false), !dbg !2744
  %call4 = call noundef nonnull align 8 dereferenceable(8) %"class.std::reverse_iterator"* @_ZNSt16reverse_iteratorIN9__gnu_cxx17__normal_iteratorIPiSt6vectorIiSaIiEEEEEppEv(%"class.std::reverse_iterator"* noundef nonnull align 8 dereferenceable(8) %__first), !dbg !2746
  %sub = sub nsw i64 %__len.0, %shr, !dbg !2747
  %sub5 = sub nsw i64 %sub, 1, !dbg !2748
  call void @llvm.dbg.value(metadata i64 %sub5, metadata !2726, metadata !DIExpression()), !dbg !2720
  br label %if.end

if.end:                                           ; preds = %if.else, %if.then
  %__len.1 = phi i64 [ %shr, %if.then ], [ %sub5, %if.else ], !dbg !2749
  call void @llvm.dbg.value(metadata i64 %__len.1, metadata !2726, metadata !DIExpression()), !dbg !2720
  br label %while.cond, !dbg !2729, !llvm.loop !2750

while.end:                                        ; preds = %while.cond
  call void @_ZNSt16reverse_iteratorIN9__gnu_cxx17__normal_iteratorIPiSt6vectorIiSaIiEEEEEC2ERKS7_(%"class.std::reverse_iterator"* noundef nonnull align 8 dereferenceable(8) %agg.result, %"class.std::reverse_iterator"* noundef nonnull align 8 dereferenceable(8) %__first), !dbg !2752
  ret void, !dbg !2753
}

; Function Attrs: mustprogress noinline nounwind uwtable
define linkonce_odr dso_local void @_ZN9__gnu_cxx5__ops15__val_less_iterEv() #6 comdat !dbg !2754 {
entry:
  ret void, !dbg !2757
}

; Function Attrs: mustprogress noinline uwtable
define linkonce_odr dso_local noundef i64 @_ZSt8distanceISt16reverse_iteratorIN9__gnu_cxx17__normal_iteratorIPiSt6vectorIiSaIiEEEEEENSt15iterator_traitsIT_E15difference_typeESA_SA_(%"class.std::reverse_iterator"* noundef %__first, %"class.std::reverse_iterator"* noundef %__last) #4 comdat !dbg !2758 {
entry:
  %agg.tmp = alloca %"class.std::reverse_iterator", align 8
  %agg.tmp1 = alloca %"class.std::reverse_iterator", align 8
  call void @llvm.dbg.declare(metadata %"class.std::reverse_iterator"* %__first, metadata !2764, metadata !DIExpression()), !dbg !2765
  call void @llvm.dbg.declare(metadata %"class.std::reverse_iterator"* %__last, metadata !2766, metadata !DIExpression()), !dbg !2767
  call void @_ZNSt16reverse_iteratorIN9__gnu_cxx17__normal_iteratorIPiSt6vectorIiSaIiEEEEEC2ERKS7_(%"class.std::reverse_iterator"* noundef nonnull align 8 dereferenceable(8) %agg.tmp, %"class.std::reverse_iterator"* noundef nonnull align 8 dereferenceable(8) %__first), !dbg !2768
  call void @_ZNSt16reverse_iteratorIN9__gnu_cxx17__normal_iteratorIPiSt6vectorIiSaIiEEEEEC2ERKS7_(%"class.std::reverse_iterator"* noundef nonnull align 8 dereferenceable(8) %agg.tmp1, %"class.std::reverse_iterator"* noundef nonnull align 8 dereferenceable(8) %__last), !dbg !2769
  call void @_ZSt19__iterator_categoryISt16reverse_iteratorIN9__gnu_cxx17__normal_iteratorIPiSt6vectorIiSaIiEEEEEENSt15iterator_traitsIT_E17iterator_categoryERKSA_(%"class.std::reverse_iterator"* noundef nonnull align 8 dereferenceable(8) %__first), !dbg !2770
  %call = call noundef i64 @_ZSt10__distanceISt16reverse_iteratorIN9__gnu_cxx17__normal_iteratorIPiSt6vectorIiSaIiEEEEEENSt15iterator_traitsIT_E15difference_typeESA_SA_St26random_access_iterator_tag(%"class.std::reverse_iterator"* noundef %agg.tmp, %"class.std::reverse_iterator"* noundef %agg.tmp1), !dbg !2771
  ret i64 %call, !dbg !2772
}

; Function Attrs: mustprogress noinline uwtable
define linkonce_odr dso_local void @_ZSt7advanceISt16reverse_iteratorIN9__gnu_cxx17__normal_iteratorIPiSt6vectorIiSaIiEEEEElEvRT_T0_(%"class.std::reverse_iterator"* noundef nonnull align 8 dereferenceable(8) %__i, i64 noundef %__n) #4 comdat !dbg !2773 {
entry:
  call void @llvm.dbg.value(metadata %"class.std::reverse_iterator"* %__i, metadata !2777, metadata !DIExpression()), !dbg !2778
  call void @llvm.dbg.value(metadata i64 %__n, metadata !2779, metadata !DIExpression()), !dbg !2778
  call void @llvm.dbg.value(metadata i64 %__n, metadata !2780, metadata !DIExpression()), !dbg !2778
  call void @_ZSt19__iterator_categoryISt16reverse_iteratorIN9__gnu_cxx17__normal_iteratorIPiSt6vectorIiSaIiEEEEEENSt15iterator_traitsIT_E17iterator_categoryERKSA_(%"class.std::reverse_iterator"* noundef nonnull align 8 dereferenceable(8) %__i), !dbg !2781
  call void @_ZSt9__advanceISt16reverse_iteratorIN9__gnu_cxx17__normal_iteratorIPiSt6vectorIiSaIiEEEEElEvRT_T0_St26random_access_iterator_tag(%"class.std::reverse_iterator"* noundef nonnull align 8 dereferenceable(8) %__i, i64 noundef %__n), !dbg !2782
  ret void, !dbg !2783
}

; Function Attrs: mustprogress noinline nounwind uwtable
define linkonce_odr dso_local noundef zeroext i1 @_ZNK9__gnu_cxx5__ops14_Val_less_iterclIKiSt16reverse_iteratorINS_17__normal_iteratorIPiSt6vectorIiSaIiEEEEEEEbRT_T0_(%"struct.__gnu_cxx::__ops::_Val_less_iter"* noundef nonnull align 1 dereferenceable(1) %this, i32* noundef nonnull align 4 dereferenceable(4) %__val, %"class.std::reverse_iterator"* noundef %__it) #6 comdat align 2 !dbg !2784 {
entry:
  call void @llvm.dbg.value(metadata %"struct.__gnu_cxx::__ops::_Val_less_iter"* %this, metadata !2792, metadata !DIExpression()), !dbg !2794
  call void @llvm.dbg.value(metadata i32* %__val, metadata !2795, metadata !DIExpression()), !dbg !2794
  call void @llvm.dbg.declare(metadata %"class.std::reverse_iterator"* %__it, metadata !2796, metadata !DIExpression()), !dbg !2797
  %i1 = load i32, i32* %__val, align 4, !dbg !2798
  %call = call noundef nonnull align 4 dereferenceable(4) i32* @_ZNKSt16reverse_iteratorIN9__gnu_cxx17__normal_iteratorIPiSt6vectorIiSaIiEEEEEdeEv(%"class.std::reverse_iterator"* noundef nonnull align 8 dereferenceable(8) %__it), !dbg !2799
  %i2 = load i32, i32* %call, align 4, !dbg !2799
  %cmp = icmp slt i32 %i1, %i2, !dbg !2800
  ret i1 %cmp, !dbg !2801
}

; Function Attrs: mustprogress noinline uwtable
define linkonce_odr dso_local noundef i64 @_ZSt10__distanceISt16reverse_iteratorIN9__gnu_cxx17__normal_iteratorIPiSt6vectorIiSaIiEEEEEENSt15iterator_traitsIT_E15difference_typeESA_SA_St26random_access_iterator_tag(%"class.std::reverse_iterator"* noundef %__first, %"class.std::reverse_iterator"* noundef %__last) #4 comdat !dbg !2802 {
entry:
  call void @llvm.dbg.declare(metadata %"class.std::reverse_iterator"* %__first, metadata !2805, metadata !DIExpression()), !dbg !2806
  call void @llvm.dbg.declare(metadata %"class.std::reverse_iterator"* %__last, metadata !2807, metadata !DIExpression()), !dbg !2808
  call void @llvm.dbg.declare(metadata %"struct.std::random_access_iterator_tag"* undef, metadata !2809, metadata !DIExpression()), !dbg !2810
  %call = call noundef i64 @_ZStmiIN9__gnu_cxx17__normal_iteratorIPiSt6vectorIiSaIiEEEES6_EDTmicldtfp0_4baseEcldtfp_4baseEERKSt16reverse_iteratorIT_ERKS8_IT0_E(%"class.std::reverse_iterator"* noundef nonnull align 8 dereferenceable(8) %__last, %"class.std::reverse_iterator"* noundef nonnull align 8 dereferenceable(8) %__first), !dbg !2811
  ret i64 %call, !dbg !2812
}

; Function Attrs: mustprogress noinline nounwind uwtable
define linkonce_odr dso_local noundef i64 @_ZStmiIN9__gnu_cxx17__normal_iteratorIPiSt6vectorIiSaIiEEEES6_EDTmicldtfp0_4baseEcldtfp_4baseEERKSt16reverse_iteratorIT_ERKS8_IT0_E(%"class.std::reverse_iterator"* noundef nonnull align 8 dereferenceable(8) %__x, %"class.std::reverse_iterator"* noundef nonnull align 8 dereferenceable(8) %__y) #6 comdat !dbg !2813 {
entry:
  %ref.tmp = alloca %"class.__gnu_cxx::__normal_iterator", align 8
  %ref.tmp1 = alloca %"class.__gnu_cxx::__normal_iterator", align 8
  call void @llvm.dbg.value(metadata %"class.std::reverse_iterator"* %__x, metadata !2819, metadata !DIExpression()), !dbg !2820
  call void @llvm.dbg.value(metadata %"class.std::reverse_iterator"* %__y, metadata !2821, metadata !DIExpression()), !dbg !2820
  %call = call i32* @_ZNKSt16reverse_iteratorIN9__gnu_cxx17__normal_iteratorIPiSt6vectorIiSaIiEEEEE4baseEv(%"class.std::reverse_iterator"* noundef nonnull align 8 dereferenceable(8) %__y), !dbg !2822
  %coerce.dive = getelementptr inbounds %"class.__gnu_cxx::__normal_iterator", %"class.__gnu_cxx::__normal_iterator"* %ref.tmp, i32 0, i32 0, !dbg !2822
  store i32* %call, i32** %coerce.dive, align 8, !dbg !2822
  %call2 = call i32* @_ZNKSt16reverse_iteratorIN9__gnu_cxx17__normal_iteratorIPiSt6vectorIiSaIiEEEEE4baseEv(%"class.std::reverse_iterator"* noundef nonnull align 8 dereferenceable(8) %__x), !dbg !2823
  %coerce.dive3 = getelementptr inbounds %"class.__gnu_cxx::__normal_iterator", %"class.__gnu_cxx::__normal_iterator"* %ref.tmp1, i32 0, i32 0, !dbg !2823
  store i32* %call2, i32** %coerce.dive3, align 8, !dbg !2823
  %call4 = call noundef i64 @_ZN9__gnu_cxxmiIPiSt6vectorIiSaIiEEEENS_17__normal_iteratorIT_T0_E15difference_typeERKS8_SB_(%"class.__gnu_cxx::__normal_iterator"* noundef nonnull align 8 dereferenceable(8) %ref.tmp, %"class.__gnu_cxx::__normal_iterator"* noundef nonnull align 8 dereferenceable(8) %ref.tmp1) #3, !dbg !2824
  ret i64 %call4, !dbg !2825
}

; Function Attrs: mustprogress noinline nounwind uwtable
define linkonce_odr dso_local noundef i64 @_ZN9__gnu_cxxmiIPiSt6vectorIiSaIiEEEENS_17__normal_iteratorIT_T0_E15difference_typeERKS8_SB_(%"class.__gnu_cxx::__normal_iterator"* noundef nonnull align 8 dereferenceable(8) %__lhs, %"class.__gnu_cxx::__normal_iterator"* noundef nonnull align 8 dereferenceable(8) %__rhs) #6 comdat !dbg !2826 {
entry:
  call void @llvm.dbg.value(metadata %"class.__gnu_cxx::__normal_iterator"* %__lhs, metadata !2829, metadata !DIExpression()), !dbg !2830
  call void @llvm.dbg.value(metadata %"class.__gnu_cxx::__normal_iterator"* %__rhs, metadata !2831, metadata !DIExpression()), !dbg !2830
  %call = call noundef nonnull align 8 dereferenceable(8) i32** @_ZNK9__gnu_cxx17__normal_iteratorIPiSt6vectorIiSaIiEEE4baseEv(%"class.__gnu_cxx::__normal_iterator"* noundef nonnull align 8 dereferenceable(8) %__lhs) #3, !dbg !2832
  %i1 = load i32*, i32** %call, align 8, !dbg !2832
  %call1 = call noundef nonnull align 8 dereferenceable(8) i32** @_ZNK9__gnu_cxx17__normal_iteratorIPiSt6vectorIiSaIiEEE4baseEv(%"class.__gnu_cxx::__normal_iterator"* noundef nonnull align 8 dereferenceable(8) %__rhs) #3, !dbg !2833
  %i3 = load i32*, i32** %call1, align 8, !dbg !2833
  %sub.ptr.lhs.cast = ptrtoint i32* %i1 to i64, !dbg !2834
  %sub.ptr.rhs.cast = ptrtoint i32* %i3 to i64, !dbg !2834
  %sub.ptr.sub = sub i64 %sub.ptr.lhs.cast, %sub.ptr.rhs.cast, !dbg !2834
  %sub.ptr.div = sdiv exact i64 %sub.ptr.sub, 4, !dbg !2834
  ret i64 %sub.ptr.div, !dbg !2835
}

; Function Attrs: mustprogress noinline uwtable
define linkonce_odr dso_local void @_ZSt9__advanceISt16reverse_iteratorIN9__gnu_cxx17__normal_iteratorIPiSt6vectorIiSaIiEEEEElEvRT_T0_St26random_access_iterator_tag(%"class.std::reverse_iterator"* noundef nonnull align 8 dereferenceable(8) %__i, i64 noundef %__n) #4 comdat !dbg !2836 {
entry:
  call void @llvm.dbg.value(metadata %"class.std::reverse_iterator"* %__i, metadata !2840, metadata !DIExpression()), !dbg !2841
  call void @llvm.dbg.value(metadata i64 %__n, metadata !2842, metadata !DIExpression()), !dbg !2841
  call void @llvm.dbg.declare(metadata %"struct.std::random_access_iterator_tag"* undef, metadata !2843, metadata !DIExpression()), !dbg !2844
  %i2 = call i1 @llvm.is.constant.i64(i64 %__n), !dbg !2845
  br i1 %i2, label %land.lhs.true, label %if.else, !dbg !2847

land.lhs.true:                                    ; preds = %entry
  %cmp = icmp eq i64 %__n, 1, !dbg !2848
  br i1 %cmp, label %if.then, label %if.else, !dbg !2849

if.then:                                          ; preds = %land.lhs.true
  %call = call noundef nonnull align 8 dereferenceable(8) %"class.std::reverse_iterator"* @_ZNSt16reverse_iteratorIN9__gnu_cxx17__normal_iteratorIPiSt6vectorIiSaIiEEEEEppEv(%"class.std::reverse_iterator"* noundef nonnull align 8 dereferenceable(8) %__i), !dbg !2850
  br label %if.end7, !dbg !2850

if.else:                                          ; preds = %land.lhs.true, %entry
  %i6 = call i1 @llvm.is.constant.i64(i64 %__n), !dbg !2851
  br i1 %i6, label %land.lhs.true1, label %if.else5, !dbg !2853

land.lhs.true1:                                   ; preds = %if.else
  %cmp2 = icmp eq i64 %__n, -1, !dbg !2854
  br i1 %cmp2, label %if.then3, label %if.else5, !dbg !2855

if.then3:                                         ; preds = %land.lhs.true1
  %call4 = call noundef nonnull align 8 dereferenceable(8) %"class.std::reverse_iterator"* @_ZNSt16reverse_iteratorIN9__gnu_cxx17__normal_iteratorIPiSt6vectorIiSaIiEEEEEmmEv(%"class.std::reverse_iterator"* noundef nonnull align 8 dereferenceable(8) %__i), !dbg !2856
  br label %if.end, !dbg !2856

if.else5:                                         ; preds = %land.lhs.true1, %if.else
  %call6 = call noundef nonnull align 8 dereferenceable(8) %"class.std::reverse_iterator"* @_ZNSt16reverse_iteratorIN9__gnu_cxx17__normal_iteratorIPiSt6vectorIiSaIiEEEEEpLEl(%"class.std::reverse_iterator"* noundef nonnull align 8 dereferenceable(8) %__i, i64 noundef %__n), !dbg !2857
  br label %if.end

if.end:                                           ; preds = %if.else5, %if.then3
  br label %if.end7

if.end7:                                          ; preds = %if.end, %if.then
  ret void, !dbg !2858
}

; Function Attrs: convergent nofree nosync nounwind readnone willreturn
declare i1 @llvm.is.constant.i64(i64) #11

; Function Attrs: mustprogress noinline nounwind uwtable
define linkonce_odr dso_local noundef nonnull align 8 dereferenceable(8) %"class.std::reverse_iterator"* @_ZNSt16reverse_iteratorIN9__gnu_cxx17__normal_iteratorIPiSt6vectorIiSaIiEEEEEpLEl(%"class.std::reverse_iterator"* noundef nonnull align 8 dereferenceable(8) %this, i64 noundef %__n) #6 comdat align 2 !dbg !2859 {
entry:
  call void @llvm.dbg.value(metadata %"class.std::reverse_iterator"* %this, metadata !2860, metadata !DIExpression()), !dbg !2861
  call void @llvm.dbg.value(metadata i64 %__n, metadata !2862, metadata !DIExpression()), !dbg !2861
  %current = getelementptr inbounds %"class.std::reverse_iterator", %"class.std::reverse_iterator"* %this, i32 0, i32 0, !dbg !2863
  %call = call noundef nonnull align 8 dereferenceable(8) %"class.__gnu_cxx::__normal_iterator"* @_ZN9__gnu_cxx17__normal_iteratorIPiSt6vectorIiSaIiEEEmIEl(%"class.__gnu_cxx::__normal_iterator"* noundef nonnull align 8 dereferenceable(8) %current, i64 noundef %__n) #3, !dbg !2864
  ret %"class.std::reverse_iterator"* %this, !dbg !2865
}

; Function Attrs: mustprogress noinline nounwind uwtable
define linkonce_odr dso_local noundef nonnull align 8 dereferenceable(8) %"class.__gnu_cxx::__normal_iterator"* @_ZN9__gnu_cxx17__normal_iteratorIPiSt6vectorIiSaIiEEEmIEl(%"class.__gnu_cxx::__normal_iterator"* noundef nonnull align 8 dereferenceable(8) %this, i64 noundef %__n) #6 comdat align 2 !dbg !2866 {
entry:
  call void @llvm.dbg.value(metadata %"class.__gnu_cxx::__normal_iterator"* %this, metadata !2867, metadata !DIExpression()), !dbg !2868
  call void @llvm.dbg.value(metadata i64 %__n, metadata !2869, metadata !DIExpression()), !dbg !2868
  %_M_current = getelementptr inbounds %"class.__gnu_cxx::__normal_iterator", %"class.__gnu_cxx::__normal_iterator"* %this, i32 0, i32 0, !dbg !2870
  %i1 = load i32*, i32** %_M_current, align 8, !dbg !2871
  %idx.neg = sub i64 0, %__n, !dbg !2871
  %add.ptr = getelementptr inbounds i32, i32* %i1, i64 %idx.neg, !dbg !2871
  store i32* %add.ptr, i32** %_M_current, align 8, !dbg !2871
  ret %"class.__gnu_cxx::__normal_iterator"* %this, !dbg !2872
}

; Function Attrs: mustprogress noinline nounwind uwtable
define linkonce_odr dso_local noundef nonnull align 4 dereferenceable(4) i32* @_ZSt4moveIRiEONSt16remove_referenceIT_E4typeEOS2_(i32* noundef nonnull align 4 dereferenceable(4) %__t) #6 comdat !dbg !2873 {
entry:
  call void @llvm.dbg.value(metadata i32* %__t, metadata !2881, metadata !DIExpression()), !dbg !2882
  ret i32* %__t, !dbg !2883
}

; Function Attrs: mustprogress noinline nounwind uwtable
define linkonce_odr dso_local noundef i64 @_ZNKSt6vectorIiSaIiEE4sizeEv(%"class.std::vector"* noundef nonnull align 8 dereferenceable(24) %this) #6 comdat align 2 !dbg !2884 {
entry:
  call void @llvm.dbg.value(metadata %"class.std::vector"* %this, metadata !2885, metadata !DIExpression()), !dbg !2887
  %i = bitcast %"class.std::vector"* %this to %"struct.std::_Vector_base"*, !dbg !2888
  %_M_impl = getelementptr inbounds %"struct.std::_Vector_base", %"struct.std::_Vector_base"* %i, i32 0, i32 0, !dbg !2888
  %i1 = bitcast %"struct.std::_Vector_base<int, std::allocator<int>>::_Vector_impl"* %_M_impl to %"struct.std::_Vector_base<int, std::allocator<int>>::_Vector_impl_data"*, !dbg !2889
  %_M_finish = getelementptr inbounds %"struct.std::_Vector_base<int, std::allocator<int>>::_Vector_impl_data", %"struct.std::_Vector_base<int, std::allocator<int>>::_Vector_impl_data"* %i1, i32 0, i32 1, !dbg !2890
  %i2 = load i32*, i32** %_M_finish, align 8, !dbg !2890
  %i3 = bitcast %"class.std::vector"* %this to %"struct.std::_Vector_base"*, !dbg !2891
  %_M_impl2 = getelementptr inbounds %"struct.std::_Vector_base", %"struct.std::_Vector_base"* %i3, i32 0, i32 0, !dbg !2891
  %i4 = bitcast %"struct.std::_Vector_base<int, std::allocator<int>>::_Vector_impl"* %_M_impl2 to %"struct.std::_Vector_base<int, std::allocator<int>>::_Vector_impl_data"*, !dbg !2892
  %_M_start = getelementptr inbounds %"struct.std::_Vector_base<int, std::allocator<int>>::_Vector_impl_data", %"struct.std::_Vector_base<int, std::allocator<int>>::_Vector_impl_data"* %i4, i32 0, i32 0, !dbg !2893
  %i5 = load i32*, i32** %_M_start, align 8, !dbg !2893
  %sub.ptr.lhs.cast = ptrtoint i32* %i2 to i64, !dbg !2894
  %sub.ptr.rhs.cast = ptrtoint i32* %i5 to i64, !dbg !2894
  %sub.ptr.sub = sub i64 %sub.ptr.lhs.cast, %sub.ptr.rhs.cast, !dbg !2894
  %sub.ptr.div = sdiv exact i64 %sub.ptr.sub, 4, !dbg !2894
  ret i64 %sub.ptr.div, !dbg !2895
}

; Function Attrs: mustprogress noinline uwtable
define linkonce_odr dso_local void @_ZN9__gnu_cxx14__alloc_traitsISaIiEiE17_S_select_on_copyERKS1_(%"class.std::allocator"* noalias sret(%"class.std::allocator") align 1 %agg.result, %"class.std::allocator"* noundef nonnull align 1 dereferenceable(1) %__a) #4 comdat align 2 !dbg !2896 {
entry:
  %i = bitcast %"class.std::allocator"* %agg.result to i8*
  call void @llvm.dbg.value(metadata %"class.std::allocator"* %__a, metadata !2897, metadata !DIExpression()), !dbg !2898
  call void @_ZNSt16allocator_traitsISaIiEE37select_on_container_copy_constructionERKS0_(%"class.std::allocator"* sret(%"class.std::allocator") align 1 %agg.result, %"class.std::allocator"* noundef nonnull align 1 dereferenceable(1) %__a), !dbg !2899
  ret void, !dbg !2900
}

; Function Attrs: mustprogress noinline nounwind uwtable
define linkonce_odr dso_local noundef nonnull align 1 dereferenceable(1) %"class.std::allocator"* @_ZNKSt12_Vector_baseIiSaIiEE19_M_get_Tp_allocatorEv(%"struct.std::_Vector_base"* noundef nonnull align 8 dereferenceable(24) %this) #6 comdat align 2 !dbg !2901 {
entry:
  call void @llvm.dbg.value(metadata %"struct.std::_Vector_base"* %this, metadata !2902, metadata !DIExpression()), !dbg !2904
  %_M_impl = getelementptr inbounds %"struct.std::_Vector_base", %"struct.std::_Vector_base"* %this, i32 0, i32 0, !dbg !2905
  %i = bitcast %"struct.std::_Vector_base<int, std::allocator<int>>::_Vector_impl"* %_M_impl to %"class.std::allocator"*, !dbg !2906
  ret %"class.std::allocator"* %i, !dbg !2907
}

; Function Attrs: noinline uwtable
define linkonce_odr dso_local void @_ZNSt12_Vector_baseIiSaIiEEC2EmRKS0_(%"struct.std::_Vector_base"* noundef nonnull align 8 dereferenceable(24) %this, i64 noundef %__n, %"class.std::allocator"* noundef nonnull align 1 dereferenceable(1) %__a) unnamed_addr #0 comdat align 2 personality i8* bitcast (i32 (...)* @__gxx_personality_v0 to i8*) !dbg !2908 {
entry:
  call void @llvm.dbg.value(metadata %"struct.std::_Vector_base"* %this, metadata !2909, metadata !DIExpression()), !dbg !2911
  call void @llvm.dbg.value(metadata i64 %__n, metadata !2912, metadata !DIExpression()), !dbg !2911
  call void @llvm.dbg.value(metadata %"class.std::allocator"* %__a, metadata !2913, metadata !DIExpression()), !dbg !2911
  %_M_impl = getelementptr inbounds %"struct.std::_Vector_base", %"struct.std::_Vector_base"* %this, i32 0, i32 0, !dbg !2914
  call void @_ZNSt12_Vector_baseIiSaIiEE12_Vector_implC2ERKS0_(%"struct.std::_Vector_base<int, std::allocator<int>>::_Vector_impl"* noundef nonnull align 8 dereferenceable(24) %_M_impl, %"class.std::allocator"* noundef nonnull align 1 dereferenceable(1) %__a) #3, !dbg !2914
  invoke void @_ZNSt12_Vector_baseIiSaIiEE17_M_create_storageEm(%"struct.std::_Vector_base"* noundef nonnull align 8 dereferenceable(24) %this, i64 noundef %__n)
          to label %invoke.cont unwind label %lpad, !dbg !2915

invoke.cont:                                      ; preds = %entry
  ret void, !dbg !2917

lpad:                                             ; preds = %entry
  %i2 = landingpad { i8*, i32 }
          cleanup, !dbg !2918
  %i3 = extractvalue { i8*, i32 } %i2, 0, !dbg !2918
  %i4 = extractvalue { i8*, i32 } %i2, 1, !dbg !2918
  call void @_ZNSt12_Vector_baseIiSaIiEE12_Vector_implD2Ev(%"struct.std::_Vector_base<int, std::allocator<int>>::_Vector_impl"* noundef nonnull align 8 dereferenceable(24) %_M_impl) #3, !dbg !2918
  br label %eh.resume, !dbg !2918

eh.resume:                                        ; preds = %lpad
  %lpad.val = insertvalue { i8*, i32 } undef, i8* %i3, 0, !dbg !2918
  %lpad.val2 = insertvalue { i8*, i32 } %lpad.val, i32 %i4, 1, !dbg !2918
  resume { i8*, i32 } %lpad.val2, !dbg !2918
}

; Function Attrs: mustprogress noinline uwtable
define linkonce_odr dso_local noundef i32* @_ZSt22__uninitialized_copy_aIN9__gnu_cxx17__normal_iteratorIPKiSt6vectorIiSaIiEEEEPiiET0_T_SA_S9_RSaIT1_E(i32* %__first.coerce, i32* %__last.coerce, i32* noundef %__result, %"class.std::allocator"* noundef nonnull align 1 dereferenceable(1) %arg) #4 comdat !dbg !2919 {
entry:
  %__first = alloca %"class.__gnu_cxx::__normal_iterator.0", align 8
  %__last = alloca %"class.__gnu_cxx::__normal_iterator.0", align 8
  %agg.tmp = alloca %"class.__gnu_cxx::__normal_iterator.0", align 8
  %agg.tmp2 = alloca %"class.__gnu_cxx::__normal_iterator.0", align 8
  %coerce.dive = getelementptr inbounds %"class.__gnu_cxx::__normal_iterator.0", %"class.__gnu_cxx::__normal_iterator.0"* %__first, i32 0, i32 0
  store i32* %__first.coerce, i32** %coerce.dive, align 8
  %coerce.dive1 = getelementptr inbounds %"class.__gnu_cxx::__normal_iterator.0", %"class.__gnu_cxx::__normal_iterator.0"* %__last, i32 0, i32 0
  store i32* %__last.coerce, i32** %coerce.dive1, align 8
  call void @llvm.dbg.declare(metadata %"class.__gnu_cxx::__normal_iterator.0"* %__first, metadata !2926, metadata !DIExpression()), !dbg !2927
  call void @llvm.dbg.declare(metadata %"class.__gnu_cxx::__normal_iterator.0"* %__last, metadata !2928, metadata !DIExpression()), !dbg !2929
  call void @llvm.dbg.value(metadata i32* %__result, metadata !2930, metadata !DIExpression()), !dbg !2931
  call void @llvm.dbg.value(metadata %"class.std::allocator"* %arg, metadata !2932, metadata !DIExpression()), !dbg !2931
  %i = bitcast %"class.__gnu_cxx::__normal_iterator.0"* %agg.tmp to i8*, !dbg !2933
  %i1 = bitcast %"class.__gnu_cxx::__normal_iterator.0"* %__first to i8*, !dbg !2933
  call void @llvm.memcpy.p0i8.p0i8.i64(i8* align 8 %i, i8* align 8 %i1, i64 8, i1 false), !dbg !2933
  %i2 = bitcast %"class.__gnu_cxx::__normal_iterator.0"* %agg.tmp2 to i8*, !dbg !2934
  %i3 = bitcast %"class.__gnu_cxx::__normal_iterator.0"* %__last to i8*, !dbg !2934
  call void @llvm.memcpy.p0i8.p0i8.i64(i8* align 8 %i2, i8* align 8 %i3, i64 8, i1 false), !dbg !2934
  %coerce.dive3 = getelementptr inbounds %"class.__gnu_cxx::__normal_iterator.0", %"class.__gnu_cxx::__normal_iterator.0"* %agg.tmp, i32 0, i32 0, !dbg !2935
  %i5 = load i32*, i32** %coerce.dive3, align 8, !dbg !2935
  %coerce.dive4 = getelementptr inbounds %"class.__gnu_cxx::__normal_iterator.0", %"class.__gnu_cxx::__normal_iterator.0"* %agg.tmp2, i32 0, i32 0, !dbg !2935
  %i6 = load i32*, i32** %coerce.dive4, align 8, !dbg !2935
  %call = call noundef i32* @_ZSt18uninitialized_copyIN9__gnu_cxx17__normal_iteratorIPKiSt6vectorIiSaIiEEEEPiET0_T_SA_S9_(i32* %i5, i32* %i6, i32* noundef %__result), !dbg !2935
  ret i32* %call, !dbg !2936
}

; Function Attrs: mustprogress noinline nounwind uwtable
define linkonce_odr dso_local i32* @_ZNKSt6vectorIiSaIiEE5beginEv(%"class.std::vector"* noundef nonnull align 8 dereferenceable(24) %this) #6 comdat align 2 !dbg !2937 {
entry:
  %retval = alloca %"class.__gnu_cxx::__normal_iterator.0", align 8
  call void @llvm.dbg.value(metadata %"class.std::vector"* %this, metadata !2938, metadata !DIExpression()), !dbg !2939
  %i = bitcast %"class.std::vector"* %this to %"struct.std::_Vector_base"*, !dbg !2940
  %_M_impl = getelementptr inbounds %"struct.std::_Vector_base", %"struct.std::_Vector_base"* %i, i32 0, i32 0, !dbg !2940
  %i1 = bitcast %"struct.std::_Vector_base<int, std::allocator<int>>::_Vector_impl"* %_M_impl to %"struct.std::_Vector_base<int, std::allocator<int>>::_Vector_impl_data"*, !dbg !2941
  %_M_start = getelementptr inbounds %"struct.std::_Vector_base<int, std::allocator<int>>::_Vector_impl_data", %"struct.std::_Vector_base<int, std::allocator<int>>::_Vector_impl_data"* %i1, i32 0, i32 0, !dbg !2942
  call void @_ZN9__gnu_cxx17__normal_iteratorIPKiSt6vectorIiSaIiEEEC2ERKS2_(%"class.__gnu_cxx::__normal_iterator.0"* noundef nonnull align 8 dereferenceable(8) %retval, i32** noundef nonnull align 8 dereferenceable(8) %_M_start) #3, !dbg !2943
  %coerce.dive = getelementptr inbounds %"class.__gnu_cxx::__normal_iterator.0", %"class.__gnu_cxx::__normal_iterator.0"* %retval, i32 0, i32 0, !dbg !2944
  %i2 = load i32*, i32** %coerce.dive, align 8, !dbg !2944
  ret i32* %i2, !dbg !2944
}

; Function Attrs: mustprogress noinline nounwind uwtable
define linkonce_odr dso_local i32* @_ZNKSt6vectorIiSaIiEE3endEv(%"class.std::vector"* noundef nonnull align 8 dereferenceable(24) %this) #6 comdat align 2 !dbg !2945 {
entry:
  %retval = alloca %"class.__gnu_cxx::__normal_iterator.0", align 8
  call void @llvm.dbg.value(metadata %"class.std::vector"* %this, metadata !2946, metadata !DIExpression()), !dbg !2947
  %i = bitcast %"class.std::vector"* %this to %"struct.std::_Vector_base"*, !dbg !2948
  %_M_impl = getelementptr inbounds %"struct.std::_Vector_base", %"struct.std::_Vector_base"* %i, i32 0, i32 0, !dbg !2948
  %i1 = bitcast %"struct.std::_Vector_base<int, std::allocator<int>>::_Vector_impl"* %_M_impl to %"struct.std::_Vector_base<int, std::allocator<int>>::_Vector_impl_data"*, !dbg !2949
  %_M_finish = getelementptr inbounds %"struct.std::_Vector_base<int, std::allocator<int>>::_Vector_impl_data", %"struct.std::_Vector_base<int, std::allocator<int>>::_Vector_impl_data"* %i1, i32 0, i32 1, !dbg !2950
  call void @_ZN9__gnu_cxx17__normal_iteratorIPKiSt6vectorIiSaIiEEEC2ERKS2_(%"class.__gnu_cxx::__normal_iterator.0"* noundef nonnull align 8 dereferenceable(8) %retval, i32** noundef nonnull align 8 dereferenceable(8) %_M_finish) #3, !dbg !2951
  %coerce.dive = getelementptr inbounds %"class.__gnu_cxx::__normal_iterator.0", %"class.__gnu_cxx::__normal_iterator.0"* %retval, i32 0, i32 0, !dbg !2952
  %i2 = load i32*, i32** %coerce.dive, align 8, !dbg !2952
  ret i32* %i2, !dbg !2952
}

; Function Attrs: mustprogress noinline nounwind uwtable
define linkonce_odr dso_local noundef nonnull align 1 dereferenceable(1) %"class.std::allocator"* @_ZNSt12_Vector_baseIiSaIiEE19_M_get_Tp_allocatorEv(%"struct.std::_Vector_base"* noundef nonnull align 8 dereferenceable(24) %this) #6 comdat align 2 !dbg !2953 {
entry:
  call void @llvm.dbg.value(metadata %"struct.std::_Vector_base"* %this, metadata !2954, metadata !DIExpression()), !dbg !2955
  %_M_impl = getelementptr inbounds %"struct.std::_Vector_base", %"struct.std::_Vector_base"* %this, i32 0, i32 0, !dbg !2956
  %i = bitcast %"struct.std::_Vector_base<int, std::allocator<int>>::_Vector_impl"* %_M_impl to %"class.std::allocator"*, !dbg !2957
  ret %"class.std::allocator"* %i, !dbg !2958
}

; Function Attrs: noinline nounwind uwtable
define linkonce_odr dso_local void @_ZNSt12_Vector_baseIiSaIiEED2Ev(%"struct.std::_Vector_base"* noundef nonnull align 8 dereferenceable(24) %this) unnamed_addr #7 comdat align 2 personality i8* bitcast (i32 (...)* @__gxx_personality_v0 to i8*) !dbg !2959 {
entry:
  call void @llvm.dbg.value(metadata %"struct.std::_Vector_base"* %this, metadata !2960, metadata !DIExpression()), !dbg !2961
  %_M_impl = getelementptr inbounds %"struct.std::_Vector_base", %"struct.std::_Vector_base"* %this, i32 0, i32 0, !dbg !2962
  %i = bitcast %"struct.std::_Vector_base<int, std::allocator<int>>::_Vector_impl"* %_M_impl to %"struct.std::_Vector_base<int, std::allocator<int>>::_Vector_impl_data"*, !dbg !2962
  %_M_start = getelementptr inbounds %"struct.std::_Vector_base<int, std::allocator<int>>::_Vector_impl_data", %"struct.std::_Vector_base<int, std::allocator<int>>::_Vector_impl_data"* %i, i32 0, i32 0, !dbg !2964
  %i1 = load i32*, i32** %_M_start, align 8, !dbg !2964
  %_M_impl2 = getelementptr inbounds %"struct.std::_Vector_base", %"struct.std::_Vector_base"* %this, i32 0, i32 0, !dbg !2965
  %i2 = bitcast %"struct.std::_Vector_base<int, std::allocator<int>>::_Vector_impl"* %_M_impl2 to %"struct.std::_Vector_base<int, std::allocator<int>>::_Vector_impl_data"*, !dbg !2965
  %_M_end_of_storage = getelementptr inbounds %"struct.std::_Vector_base<int, std::allocator<int>>::_Vector_impl_data", %"struct.std::_Vector_base<int, std::allocator<int>>::_Vector_impl_data"* %i2, i32 0, i32 2, !dbg !2966
  %i3 = load i32*, i32** %_M_end_of_storage, align 8, !dbg !2966
  %_M_impl3 = getelementptr inbounds %"struct.std::_Vector_base", %"struct.std::_Vector_base"* %this, i32 0, i32 0, !dbg !2967
  %i4 = bitcast %"struct.std::_Vector_base<int, std::allocator<int>>::_Vector_impl"* %_M_impl3 to %"struct.std::_Vector_base<int, std::allocator<int>>::_Vector_impl_data"*, !dbg !2967
  %_M_start4 = getelementptr inbounds %"struct.std::_Vector_base<int, std::allocator<int>>::_Vector_impl_data", %"struct.std::_Vector_base<int, std::allocator<int>>::_Vector_impl_data"* %i4, i32 0, i32 0, !dbg !2968
  %i5 = load i32*, i32** %_M_start4, align 8, !dbg !2968
  %sub.ptr.lhs.cast = ptrtoint i32* %i3 to i64, !dbg !2969
  %sub.ptr.rhs.cast = ptrtoint i32* %i5 to i64, !dbg !2969
  %sub.ptr.sub = sub i64 %sub.ptr.lhs.cast, %sub.ptr.rhs.cast, !dbg !2969
  %sub.ptr.div = sdiv exact i64 %sub.ptr.sub, 4, !dbg !2969
  invoke void @_ZNSt12_Vector_baseIiSaIiEE13_M_deallocateEPim(%"struct.std::_Vector_base"* noundef nonnull align 8 dereferenceable(24) %this, i32* noundef %i1, i64 noundef %sub.ptr.div)
          to label %invoke.cont unwind label %lpad, !dbg !2970

invoke.cont:                                      ; preds = %entry
  %_M_impl5 = getelementptr inbounds %"struct.std::_Vector_base", %"struct.std::_Vector_base"* %this, i32 0, i32 0, !dbg !2971
  call void @_ZNSt12_Vector_baseIiSaIiEE12_Vector_implD2Ev(%"struct.std::_Vector_base<int, std::allocator<int>>::_Vector_impl"* noundef nonnull align 8 dereferenceable(24) %_M_impl5) #3, !dbg !2971
  ret void, !dbg !2972

lpad:                                             ; preds = %entry
  %i6 = landingpad { i8*, i32 }
          catch i8* null, !dbg !2971
  %i7 = extractvalue { i8*, i32 } %i6, 0, !dbg !2971
  %i8 = extractvalue { i8*, i32 } %i6, 1, !dbg !2971
  %_M_impl6 = getelementptr inbounds %"struct.std::_Vector_base", %"struct.std::_Vector_base"* %this, i32 0, i32 0, !dbg !2971
  call void @_ZNSt12_Vector_baseIiSaIiEE12_Vector_implD2Ev(%"struct.std::_Vector_base<int, std::allocator<int>>::_Vector_impl"* noundef nonnull align 8 dereferenceable(24) %_M_impl6) #3, !dbg !2971
  br label %terminate.handler, !dbg !2971

terminate.handler:                                ; preds = %lpad
  call void @__clang_call_terminate(i8* %i7) #15, !dbg !2971
  unreachable, !dbg !2971
}

; Function Attrs: mustprogress noinline nounwind uwtable
define linkonce_odr dso_local void @_ZNSt16allocator_traitsISaIiEE37select_on_container_copy_constructionERKS0_(%"class.std::allocator"* noalias sret(%"class.std::allocator") align 1 %agg.result, %"class.std::allocator"* noundef nonnull align 1 dereferenceable(1) %__rhs) #6 comdat align 2 !dbg !2973 {
entry:
  %i = bitcast %"class.std::allocator"* %agg.result to i8*
  call void @llvm.dbg.value(metadata %"class.std::allocator"* %__rhs, metadata !2974, metadata !DIExpression()), !dbg !2975
  call void @_ZNSaIiEC2ERKS_(%"class.std::allocator"* noundef nonnull align 1 dereferenceable(1) %agg.result, %"class.std::allocator"* noundef nonnull align 1 dereferenceable(1) %__rhs) #3, !dbg !2976
  ret void, !dbg !2977
}

; Function Attrs: noinline nounwind uwtable
define linkonce_odr dso_local void @_ZNSaIiEC2ERKS_(%"class.std::allocator"* noundef nonnull align 1 dereferenceable(1) %this, %"class.std::allocator"* noundef nonnull align 1 dereferenceable(1) %__a) unnamed_addr #7 comdat align 2 !dbg !2978 {
entry:
  call void @llvm.dbg.value(metadata %"class.std::allocator"* %this, metadata !2979, metadata !DIExpression()), !dbg !2980
  call void @llvm.dbg.value(metadata %"class.std::allocator"* %__a, metadata !2981, metadata !DIExpression()), !dbg !2980
  %i = bitcast %"class.std::allocator"* %this to %"class.__gnu_cxx::new_allocator"*, !dbg !2982
  %i2 = bitcast %"class.std::allocator"* %__a to %"class.__gnu_cxx::new_allocator"*, !dbg !2983
  call void @_ZN9__gnu_cxx13new_allocatorIiEC2ERKS1_(%"class.__gnu_cxx::new_allocator"* noundef nonnull align 1 dereferenceable(1) %i, %"class.__gnu_cxx::new_allocator"* noundef nonnull align 1 dereferenceable(1) %i2) #3, !dbg !2984
  ret void, !dbg !2985
}

; Function Attrs: noinline nounwind uwtable
define linkonce_odr dso_local void @_ZN9__gnu_cxx13new_allocatorIiEC2ERKS1_(%"class.__gnu_cxx::new_allocator"* noundef nonnull align 1 dereferenceable(1) %this, %"class.__gnu_cxx::new_allocator"* noundef nonnull align 1 dereferenceable(1) %arg) unnamed_addr #7 comdat align 2 !dbg !2986 {
entry:
  call void @llvm.dbg.value(metadata %"class.__gnu_cxx::new_allocator"* %this, metadata !2987, metadata !DIExpression()), !dbg !2988
  call void @llvm.dbg.value(metadata %"class.__gnu_cxx::new_allocator"* %arg, metadata !2989, metadata !DIExpression()), !dbg !2988
  ret void, !dbg !2990
}

; Function Attrs: noinline nounwind uwtable
define linkonce_odr dso_local void @_ZNSt12_Vector_baseIiSaIiEE12_Vector_implC2ERKS0_(%"struct.std::_Vector_base<int, std::allocator<int>>::_Vector_impl"* noundef nonnull align 8 dereferenceable(24) %this, %"class.std::allocator"* noundef nonnull align 1 dereferenceable(1) %__a) unnamed_addr #7 comdat align 2 !dbg !2991 {
entry:
  call void @llvm.dbg.value(metadata %"struct.std::_Vector_base<int, std::allocator<int>>::_Vector_impl"* %this, metadata !2992, metadata !DIExpression()), !dbg !2994
  call void @llvm.dbg.value(metadata %"class.std::allocator"* %__a, metadata !2995, metadata !DIExpression()), !dbg !2994
  %i = bitcast %"struct.std::_Vector_base<int, std::allocator<int>>::_Vector_impl"* %this to %"class.std::allocator"*, !dbg !2996
  call void @_ZNSaIiEC2ERKS_(%"class.std::allocator"* noundef nonnull align 1 dereferenceable(1) %i, %"class.std::allocator"* noundef nonnull align 1 dereferenceable(1) %__a) #3, !dbg !2997
  %i2 = bitcast %"struct.std::_Vector_base<int, std::allocator<int>>::_Vector_impl"* %this to %"struct.std::_Vector_base<int, std::allocator<int>>::_Vector_impl_data"*, !dbg !2996
  call void @_ZNSt12_Vector_baseIiSaIiEE17_Vector_impl_dataC2Ev(%"struct.std::_Vector_base<int, std::allocator<int>>::_Vector_impl_data"* noundef nonnull align 8 dereferenceable(24) %i2) #3, !dbg !2998
  ret void, !dbg !2999
}

; Function Attrs: mustprogress noinline uwtable
define linkonce_odr dso_local void @_ZNSt12_Vector_baseIiSaIiEE17_M_create_storageEm(%"struct.std::_Vector_base"* noundef nonnull align 8 dereferenceable(24) %this, i64 noundef %__n) #4 comdat align 2 !dbg !3000 {
entry:
  call void @llvm.dbg.value(metadata %"struct.std::_Vector_base"* %this, metadata !3001, metadata !DIExpression()), !dbg !3002
  call void @llvm.dbg.value(metadata i64 %__n, metadata !3003, metadata !DIExpression()), !dbg !3002
  %call = call noundef i32* @_ZNSt12_Vector_baseIiSaIiEE11_M_allocateEm(%"struct.std::_Vector_base"* noundef nonnull align 8 dereferenceable(24) %this, i64 noundef %__n), !dbg !3004
  %_M_impl = getelementptr inbounds %"struct.std::_Vector_base", %"struct.std::_Vector_base"* %this, i32 0, i32 0, !dbg !3005
  %i1 = bitcast %"struct.std::_Vector_base<int, std::allocator<int>>::_Vector_impl"* %_M_impl to %"struct.std::_Vector_base<int, std::allocator<int>>::_Vector_impl_data"*, !dbg !3006
  %_M_start = getelementptr inbounds %"struct.std::_Vector_base<int, std::allocator<int>>::_Vector_impl_data", %"struct.std::_Vector_base<int, std::allocator<int>>::_Vector_impl_data"* %i1, i32 0, i32 0, !dbg !3007
  store i32* %call, i32** %_M_start, align 8, !dbg !3008
  %_M_impl2 = getelementptr inbounds %"struct.std::_Vector_base", %"struct.std::_Vector_base"* %this, i32 0, i32 0, !dbg !3009
  %i2 = bitcast %"struct.std::_Vector_base<int, std::allocator<int>>::_Vector_impl"* %_M_impl2 to %"struct.std::_Vector_base<int, std::allocator<int>>::_Vector_impl_data"*, !dbg !3010
  %_M_start3 = getelementptr inbounds %"struct.std::_Vector_base<int, std::allocator<int>>::_Vector_impl_data", %"struct.std::_Vector_base<int, std::allocator<int>>::_Vector_impl_data"* %i2, i32 0, i32 0, !dbg !3011
  %i3 = load i32*, i32** %_M_start3, align 8, !dbg !3011
  %_M_impl4 = getelementptr inbounds %"struct.std::_Vector_base", %"struct.std::_Vector_base"* %this, i32 0, i32 0, !dbg !3012
  %i4 = bitcast %"struct.std::_Vector_base<int, std::allocator<int>>::_Vector_impl"* %_M_impl4 to %"struct.std::_Vector_base<int, std::allocator<int>>::_Vector_impl_data"*, !dbg !3013
  %_M_finish = getelementptr inbounds %"struct.std::_Vector_base<int, std::allocator<int>>::_Vector_impl_data", %"struct.std::_Vector_base<int, std::allocator<int>>::_Vector_impl_data"* %i4, i32 0, i32 1, !dbg !3014
  store i32* %i3, i32** %_M_finish, align 8, !dbg !3015
  %_M_impl5 = getelementptr inbounds %"struct.std::_Vector_base", %"struct.std::_Vector_base"* %this, i32 0, i32 0, !dbg !3016
  %i5 = bitcast %"struct.std::_Vector_base<int, std::allocator<int>>::_Vector_impl"* %_M_impl5 to %"struct.std::_Vector_base<int, std::allocator<int>>::_Vector_impl_data"*, !dbg !3017
  %_M_start6 = getelementptr inbounds %"struct.std::_Vector_base<int, std::allocator<int>>::_Vector_impl_data", %"struct.std::_Vector_base<int, std::allocator<int>>::_Vector_impl_data"* %i5, i32 0, i32 0, !dbg !3018
  %i6 = load i32*, i32** %_M_start6, align 8, !dbg !3018
  %add.ptr = getelementptr inbounds i32, i32* %i6, i64 %__n, !dbg !3019
  %_M_impl7 = getelementptr inbounds %"struct.std::_Vector_base", %"struct.std::_Vector_base"* %this, i32 0, i32 0, !dbg !3020
  %i8 = bitcast %"struct.std::_Vector_base<int, std::allocator<int>>::_Vector_impl"* %_M_impl7 to %"struct.std::_Vector_base<int, std::allocator<int>>::_Vector_impl_data"*, !dbg !3021
  %_M_end_of_storage = getelementptr inbounds %"struct.std::_Vector_base<int, std::allocator<int>>::_Vector_impl_data", %"struct.std::_Vector_base<int, std::allocator<int>>::_Vector_impl_data"* %i8, i32 0, i32 2, !dbg !3022
  store i32* %add.ptr, i32** %_M_end_of_storage, align 8, !dbg !3023
  ret void, !dbg !3024
}

; Function Attrs: noinline nounwind uwtable
define linkonce_odr dso_local void @_ZNSt12_Vector_baseIiSaIiEE12_Vector_implD2Ev(%"struct.std::_Vector_base<int, std::allocator<int>>::_Vector_impl"* noundef nonnull align 8 dereferenceable(24) %this) unnamed_addr #7 comdat align 2 !dbg !3025 {
entry:
  call void @llvm.dbg.value(metadata %"struct.std::_Vector_base<int, std::allocator<int>>::_Vector_impl"* %this, metadata !3027, metadata !DIExpression()), !dbg !3028
  %i = bitcast %"struct.std::_Vector_base<int, std::allocator<int>>::_Vector_impl"* %this to %"class.std::allocator"*, !dbg !3029
  call void @_ZNSaIiED2Ev(%"class.std::allocator"* noundef nonnull align 1 dereferenceable(1) %i) #3, !dbg !3029
  ret void, !dbg !3031
}

; Function Attrs: noinline nounwind uwtable
define linkonce_odr dso_local void @_ZNSt12_Vector_baseIiSaIiEE17_Vector_impl_dataC2Ev(%"struct.std::_Vector_base<int, std::allocator<int>>::_Vector_impl_data"* noundef nonnull align 8 dereferenceable(24) %this) unnamed_addr #7 comdat align 2 !dbg !3032 {
entry:
  call void @llvm.dbg.value(metadata %"struct.std::_Vector_base<int, std::allocator<int>>::_Vector_impl_data"* %this, metadata !3033, metadata !DIExpression()), !dbg !3035
  %_M_start = getelementptr inbounds %"struct.std::_Vector_base<int, std::allocator<int>>::_Vector_impl_data", %"struct.std::_Vector_base<int, std::allocator<int>>::_Vector_impl_data"* %this, i32 0, i32 0, !dbg !3036
  store i32* null, i32** %_M_start, align 8, !dbg !3036
  %_M_finish = getelementptr inbounds %"struct.std::_Vector_base<int, std::allocator<int>>::_Vector_impl_data", %"struct.std::_Vector_base<int, std::allocator<int>>::_Vector_impl_data"* %this, i32 0, i32 1, !dbg !3037
  store i32* null, i32** %_M_finish, align 8, !dbg !3037
  %_M_end_of_storage = getelementptr inbounds %"struct.std::_Vector_base<int, std::allocator<int>>::_Vector_impl_data", %"struct.std::_Vector_base<int, std::allocator<int>>::_Vector_impl_data"* %this, i32 0, i32 2, !dbg !3038
  store i32* null, i32** %_M_end_of_storage, align 8, !dbg !3038
  ret void, !dbg !3039
}

; Function Attrs: mustprogress noinline uwtable
define linkonce_odr dso_local noundef i32* @_ZNSt12_Vector_baseIiSaIiEE11_M_allocateEm(%"struct.std::_Vector_base"* noundef nonnull align 8 dereferenceable(24) %this, i64 noundef %__n) #4 comdat align 2 !dbg !3040 {
entry:
  call void @llvm.dbg.value(metadata %"struct.std::_Vector_base"* %this, metadata !3041, metadata !DIExpression()), !dbg !3042
  call void @llvm.dbg.value(metadata i64 %__n, metadata !3043, metadata !DIExpression()), !dbg !3042
  %cmp = icmp ne i64 %__n, 0, !dbg !3044
  br i1 %cmp, label %cond.true, label %cond.false, !dbg !3045

cond.true:                                        ; preds = %entry
  %_M_impl = getelementptr inbounds %"struct.std::_Vector_base", %"struct.std::_Vector_base"* %this, i32 0, i32 0, !dbg !3046
  %i1 = bitcast %"struct.std::_Vector_base<int, std::allocator<int>>::_Vector_impl"* %_M_impl to %"class.std::allocator"*, !dbg !3046
  %call = call noundef i32* @_ZNSt16allocator_traitsISaIiEE8allocateERS0_m(%"class.std::allocator"* noundef nonnull align 1 dereferenceable(1) %i1, i64 noundef %__n), !dbg !3047
  br label %cond.end, !dbg !3045

cond.false:                                       ; preds = %entry
  br label %cond.end, !dbg !3045

cond.end:                                         ; preds = %cond.false, %cond.true
  %cond = phi i32* [ %call, %cond.true ], [ null, %cond.false ], !dbg !3045
  ret i32* %cond, !dbg !3048
}

; Function Attrs: mustprogress noinline uwtable
define linkonce_odr dso_local noundef i32* @_ZNSt16allocator_traitsISaIiEE8allocateERS0_m(%"class.std::allocator"* noundef nonnull align 1 dereferenceable(1) %__a, i64 noundef %__n) #4 comdat align 2 !dbg !3049 {
entry:
  call void @llvm.dbg.value(metadata %"class.std::allocator"* %__a, metadata !3050, metadata !DIExpression()), !dbg !3051
  call void @llvm.dbg.value(metadata i64 %__n, metadata !3052, metadata !DIExpression()), !dbg !3051
  %i1 = bitcast %"class.std::allocator"* %__a to %"class.__gnu_cxx::new_allocator"*, !dbg !3053
  %call = call noundef i32* @_ZN9__gnu_cxx13new_allocatorIiE8allocateEmPKv(%"class.__gnu_cxx::new_allocator"* noundef nonnull align 1 dereferenceable(1) %i1, i64 noundef %__n, i8* noundef null), !dbg !3054
  ret i32* %call, !dbg !3055
}

; Function Attrs: mustprogress noinline uwtable
define linkonce_odr dso_local noundef i32* @_ZN9__gnu_cxx13new_allocatorIiE8allocateEmPKv(%"class.__gnu_cxx::new_allocator"* noundef nonnull align 1 dereferenceable(1) %this, i64 noundef %__n, i8* noundef %arg) #4 comdat align 2 !dbg !3056 {
entry:
  call void @llvm.dbg.value(metadata %"class.__gnu_cxx::new_allocator"* %this, metadata !3057, metadata !DIExpression()), !dbg !3058
  call void @llvm.dbg.value(metadata i64 %__n, metadata !3059, metadata !DIExpression()), !dbg !3058
  call void @llvm.dbg.value(metadata i8* %arg, metadata !3060, metadata !DIExpression()), !dbg !3058
  %call = call noundef i64 @_ZNK9__gnu_cxx13new_allocatorIiE11_M_max_sizeEv(%"class.__gnu_cxx::new_allocator"* noundef nonnull align 1 dereferenceable(1) %this) #3, !dbg !3061
  %cmp = icmp ugt i64 %__n, %call, !dbg !3063
  br i1 %cmp, label %if.then, label %if.end4, !dbg !3064

if.then:                                          ; preds = %entry
  %cmp2 = icmp ugt i64 %__n, 4611686018427387903, !dbg !3065
  br i1 %cmp2, label %if.then3, label %if.end, !dbg !3068

if.then3:                                         ; preds = %if.then
  call void @_ZSt28__throw_bad_array_new_lengthv() #16, !dbg !3069
  br label %UnifiedUnreachableBlock

if.end:                                           ; preds = %if.then
  call void @_ZSt17__throw_bad_allocv() #16, !dbg !3070
  br label %UnifiedUnreachableBlock

if.end4:                                          ; preds = %entry
  %mul = mul i64 %__n, 4, !dbg !3071
  %call5 = call noalias noundef nonnull i8* @_Znwm(i64 noundef %mul) #17, !dbg !3072
  %i3 = bitcast i8* %call5 to i32*, !dbg !3073
  ret i32* %i3, !dbg !3074

UnifiedUnreachableBlock:                          ; preds = %if.end, %if.then3
  unreachable
}

; Function Attrs: mustprogress noinline nounwind uwtable
define linkonce_odr dso_local noundef i64 @_ZNK9__gnu_cxx13new_allocatorIiE11_M_max_sizeEv(%"class.__gnu_cxx::new_allocator"* noundef nonnull align 1 dereferenceable(1) %this) #6 comdat align 2 !dbg !3075 {
entry:
  call void @llvm.dbg.value(metadata %"class.__gnu_cxx::new_allocator"* %this, metadata !3076, metadata !DIExpression()), !dbg !3078
  ret i64 2305843009213693951, !dbg !3079
}

; Function Attrs: noreturn
declare void @_ZSt28__throw_bad_array_new_lengthv() #12

; Function Attrs: noreturn
declare void @_ZSt17__throw_bad_allocv() #12

; Function Attrs: nobuiltin allocsize(0)
declare noundef nonnull i8* @_Znwm(i64 noundef) #13

; Function Attrs: mustprogress noinline uwtable
define linkonce_odr dso_local noundef i32* @_ZSt18uninitialized_copyIN9__gnu_cxx17__normal_iteratorIPKiSt6vectorIiSaIiEEEEPiET0_T_SA_S9_(i32* %__first.coerce, i32* %__last.coerce, i32* noundef %__result) #4 comdat !dbg !3080 {
entry:
  %__first = alloca %"class.__gnu_cxx::__normal_iterator.0", align 8
  %__last = alloca %"class.__gnu_cxx::__normal_iterator.0", align 8
  %agg.tmp = alloca %"class.__gnu_cxx::__normal_iterator.0", align 8
  %agg.tmp2 = alloca %"class.__gnu_cxx::__normal_iterator.0", align 8
  %coerce.dive = getelementptr inbounds %"class.__gnu_cxx::__normal_iterator.0", %"class.__gnu_cxx::__normal_iterator.0"* %__first, i32 0, i32 0
  store i32* %__first.coerce, i32** %coerce.dive, align 8
  %coerce.dive1 = getelementptr inbounds %"class.__gnu_cxx::__normal_iterator.0", %"class.__gnu_cxx::__normal_iterator.0"* %__last, i32 0, i32 0
  store i32* %__last.coerce, i32** %coerce.dive1, align 8
  call void @llvm.dbg.declare(metadata %"class.__gnu_cxx::__normal_iterator.0"* %__first, metadata !3084, metadata !DIExpression()), !dbg !3085
  call void @llvm.dbg.declare(metadata %"class.__gnu_cxx::__normal_iterator.0"* %__last, metadata !3086, metadata !DIExpression()), !dbg !3087
  call void @llvm.dbg.value(metadata i32* %__result, metadata !3088, metadata !DIExpression()), !dbg !3089
  call void @llvm.dbg.value(metadata i8 1, metadata !3090, metadata !DIExpression()), !dbg !3089
  %i = bitcast %"class.__gnu_cxx::__normal_iterator.0"* %agg.tmp to i8*, !dbg !3091
  %i1 = bitcast %"class.__gnu_cxx::__normal_iterator.0"* %__first to i8*, !dbg !3091
  call void @llvm.memcpy.p0i8.p0i8.i64(i8* align 8 %i, i8* align 8 %i1, i64 8, i1 false), !dbg !3091
  %i2 = bitcast %"class.__gnu_cxx::__normal_iterator.0"* %agg.tmp2 to i8*, !dbg !3092
  %i3 = bitcast %"class.__gnu_cxx::__normal_iterator.0"* %__last to i8*, !dbg !3092
  call void @llvm.memcpy.p0i8.p0i8.i64(i8* align 8 %i2, i8* align 8 %i3, i64 8, i1 false), !dbg !3092
  %coerce.dive3 = getelementptr inbounds %"class.__gnu_cxx::__normal_iterator.0", %"class.__gnu_cxx::__normal_iterator.0"* %agg.tmp, i32 0, i32 0, !dbg !3093
  %i5 = load i32*, i32** %coerce.dive3, align 8, !dbg !3093
  %coerce.dive4 = getelementptr inbounds %"class.__gnu_cxx::__normal_iterator.0", %"class.__gnu_cxx::__normal_iterator.0"* %agg.tmp2, i32 0, i32 0, !dbg !3093
  %i6 = load i32*, i32** %coerce.dive4, align 8, !dbg !3093
  %call = call noundef i32* @_ZNSt20__uninitialized_copyILb1EE13__uninit_copyIN9__gnu_cxx17__normal_iteratorIPKiSt6vectorIiSaIiEEEEPiEET0_T_SC_SB_(i32* %i5, i32* %i6, i32* noundef %__result), !dbg !3093
  ret i32* %call, !dbg !3094
}

; Function Attrs: mustprogress noinline uwtable
define linkonce_odr dso_local noundef i32* @_ZNSt20__uninitialized_copyILb1EE13__uninit_copyIN9__gnu_cxx17__normal_iteratorIPKiSt6vectorIiSaIiEEEEPiEET0_T_SC_SB_(i32* %__first.coerce, i32* %__last.coerce, i32* noundef %__result) #4 comdat align 2 !dbg !3095 {
entry:
  %__first = alloca %"class.__gnu_cxx::__normal_iterator.0", align 8
  %__last = alloca %"class.__gnu_cxx::__normal_iterator.0", align 8
  %agg.tmp = alloca %"class.__gnu_cxx::__normal_iterator.0", align 8
  %agg.tmp2 = alloca %"class.__gnu_cxx::__normal_iterator.0", align 8
  %coerce.dive = getelementptr inbounds %"class.__gnu_cxx::__normal_iterator.0", %"class.__gnu_cxx::__normal_iterator.0"* %__first, i32 0, i32 0
  store i32* %__first.coerce, i32** %coerce.dive, align 8
  %coerce.dive1 = getelementptr inbounds %"class.__gnu_cxx::__normal_iterator.0", %"class.__gnu_cxx::__normal_iterator.0"* %__last, i32 0, i32 0
  store i32* %__last.coerce, i32** %coerce.dive1, align 8
  call void @llvm.dbg.declare(metadata %"class.__gnu_cxx::__normal_iterator.0"* %__first, metadata !3100, metadata !DIExpression()), !dbg !3101
  call void @llvm.dbg.declare(metadata %"class.__gnu_cxx::__normal_iterator.0"* %__last, metadata !3102, metadata !DIExpression()), !dbg !3103
  call void @llvm.dbg.value(metadata i32* %__result, metadata !3104, metadata !DIExpression()), !dbg !3105
  %i = bitcast %"class.__gnu_cxx::__normal_iterator.0"* %agg.tmp to i8*, !dbg !3106
  %i1 = bitcast %"class.__gnu_cxx::__normal_iterator.0"* %__first to i8*, !dbg !3106
  call void @llvm.memcpy.p0i8.p0i8.i64(i8* align 8 %i, i8* align 8 %i1, i64 8, i1 false), !dbg !3106
  %i2 = bitcast %"class.__gnu_cxx::__normal_iterator.0"* %agg.tmp2 to i8*, !dbg !3107
  %i3 = bitcast %"class.__gnu_cxx::__normal_iterator.0"* %__last to i8*, !dbg !3107
  call void @llvm.memcpy.p0i8.p0i8.i64(i8* align 8 %i2, i8* align 8 %i3, i64 8, i1 false), !dbg !3107
  %coerce.dive3 = getelementptr inbounds %"class.__gnu_cxx::__normal_iterator.0", %"class.__gnu_cxx::__normal_iterator.0"* %agg.tmp, i32 0, i32 0, !dbg !3108
  %i5 = load i32*, i32** %coerce.dive3, align 8, !dbg !3108
  %coerce.dive4 = getelementptr inbounds %"class.__gnu_cxx::__normal_iterator.0", %"class.__gnu_cxx::__normal_iterator.0"* %agg.tmp2, i32 0, i32 0, !dbg !3108
  %i6 = load i32*, i32** %coerce.dive4, align 8, !dbg !3108
  %call = call noundef i32* @_ZSt4copyIN9__gnu_cxx17__normal_iteratorIPKiSt6vectorIiSaIiEEEEPiET0_T_SA_S9_(i32* %i5, i32* %i6, i32* noundef %__result), !dbg !3108
  ret i32* %call, !dbg !3109
}

; Function Attrs: mustprogress noinline uwtable
define linkonce_odr dso_local noundef i32* @_ZSt4copyIN9__gnu_cxx17__normal_iteratorIPKiSt6vectorIiSaIiEEEEPiET0_T_SA_S9_(i32* %__first.coerce, i32* %__last.coerce, i32* noundef %__result) #4 comdat !dbg !3110 {
entry:
  %__first = alloca %"class.__gnu_cxx::__normal_iterator.0", align 8
  %__last = alloca %"class.__gnu_cxx::__normal_iterator.0", align 8
  %agg.tmp = alloca %"class.__gnu_cxx::__normal_iterator.0", align 8
  %agg.tmp2 = alloca %"class.__gnu_cxx::__normal_iterator.0", align 8
  %agg.tmp5 = alloca %"class.__gnu_cxx::__normal_iterator.0", align 8
  %agg.tmp6 = alloca %"class.__gnu_cxx::__normal_iterator.0", align 8
  %coerce.dive = getelementptr inbounds %"class.__gnu_cxx::__normal_iterator.0", %"class.__gnu_cxx::__normal_iterator.0"* %__first, i32 0, i32 0
  store i32* %__first.coerce, i32** %coerce.dive, align 8
  %coerce.dive1 = getelementptr inbounds %"class.__gnu_cxx::__normal_iterator.0", %"class.__gnu_cxx::__normal_iterator.0"* %__last, i32 0, i32 0
  store i32* %__last.coerce, i32** %coerce.dive1, align 8
  call void @llvm.dbg.declare(metadata %"class.__gnu_cxx::__normal_iterator.0"* %__first, metadata !3114, metadata !DIExpression()), !dbg !3115
  call void @llvm.dbg.declare(metadata %"class.__gnu_cxx::__normal_iterator.0"* %__last, metadata !3116, metadata !DIExpression()), !dbg !3117
  call void @llvm.dbg.value(metadata i32* %__result, metadata !3118, metadata !DIExpression()), !dbg !3119
  %i = bitcast %"class.__gnu_cxx::__normal_iterator.0"* %agg.tmp2 to i8*, !dbg !3120
  %i1 = bitcast %"class.__gnu_cxx::__normal_iterator.0"* %__first to i8*, !dbg !3120
  call void @llvm.memcpy.p0i8.p0i8.i64(i8* align 8 %i, i8* align 8 %i1, i64 8, i1 false), !dbg !3120
  %coerce.dive3 = getelementptr inbounds %"class.__gnu_cxx::__normal_iterator.0", %"class.__gnu_cxx::__normal_iterator.0"* %agg.tmp2, i32 0, i32 0, !dbg !3121
  %i2 = load i32*, i32** %coerce.dive3, align 8, !dbg !3121
  %call = call i32* @_ZSt12__miter_baseIN9__gnu_cxx17__normal_iteratorIPKiSt6vectorIiSaIiEEEEET_S8_(i32* %i2), !dbg !3121
  %coerce.dive4 = getelementptr inbounds %"class.__gnu_cxx::__normal_iterator.0", %"class.__gnu_cxx::__normal_iterator.0"* %agg.tmp, i32 0, i32 0, !dbg !3121
  store i32* %call, i32** %coerce.dive4, align 8, !dbg !3121
  %i3 = bitcast %"class.__gnu_cxx::__normal_iterator.0"* %agg.tmp6 to i8*, !dbg !3122
  %i4 = bitcast %"class.__gnu_cxx::__normal_iterator.0"* %__last to i8*, !dbg !3122
  call void @llvm.memcpy.p0i8.p0i8.i64(i8* align 8 %i3, i8* align 8 %i4, i64 8, i1 false), !dbg !3122
  %coerce.dive7 = getelementptr inbounds %"class.__gnu_cxx::__normal_iterator.0", %"class.__gnu_cxx::__normal_iterator.0"* %agg.tmp6, i32 0, i32 0, !dbg !3123
  %i5 = load i32*, i32** %coerce.dive7, align 8, !dbg !3123
  %call8 = call i32* @_ZSt12__miter_baseIN9__gnu_cxx17__normal_iteratorIPKiSt6vectorIiSaIiEEEEET_S8_(i32* %i5), !dbg !3123
  %coerce.dive9 = getelementptr inbounds %"class.__gnu_cxx::__normal_iterator.0", %"class.__gnu_cxx::__normal_iterator.0"* %agg.tmp5, i32 0, i32 0, !dbg !3123
  store i32* %call8, i32** %coerce.dive9, align 8, !dbg !3123
  %coerce.dive10 = getelementptr inbounds %"class.__gnu_cxx::__normal_iterator.0", %"class.__gnu_cxx::__normal_iterator.0"* %agg.tmp, i32 0, i32 0, !dbg !3124
  %i7 = load i32*, i32** %coerce.dive10, align 8, !dbg !3124
  %coerce.dive11 = getelementptr inbounds %"class.__gnu_cxx::__normal_iterator.0", %"class.__gnu_cxx::__normal_iterator.0"* %agg.tmp5, i32 0, i32 0, !dbg !3124
  %i8 = load i32*, i32** %coerce.dive11, align 8, !dbg !3124
  %call12 = call noundef i32* @_ZSt13__copy_move_aILb0EN9__gnu_cxx17__normal_iteratorIPKiSt6vectorIiSaIiEEEEPiET1_T0_SA_S9_(i32* %i7, i32* %i8, i32* noundef %__result), !dbg !3124
  ret i32* %call12, !dbg !3125
}

; Function Attrs: mustprogress noinline uwtable
define linkonce_odr dso_local noundef i32* @_ZSt13__copy_move_aILb0EN9__gnu_cxx17__normal_iteratorIPKiSt6vectorIiSaIiEEEEPiET1_T0_SA_S9_(i32* %__first.coerce, i32* %__last.coerce, i32* noundef %__result) #4 comdat !dbg !3126 {
entry:
  %__first = alloca %"class.__gnu_cxx::__normal_iterator.0", align 8
  %__last = alloca %"class.__gnu_cxx::__normal_iterator.0", align 8
  %__result.addr = alloca i32*, align 8
  %agg.tmp = alloca %"class.__gnu_cxx::__normal_iterator.0", align 8
  %agg.tmp3 = alloca %"class.__gnu_cxx::__normal_iterator.0", align 8
  %coerce.dive = getelementptr inbounds %"class.__gnu_cxx::__normal_iterator.0", %"class.__gnu_cxx::__normal_iterator.0"* %__first, i32 0, i32 0
  store i32* %__first.coerce, i32** %coerce.dive, align 8
  %coerce.dive1 = getelementptr inbounds %"class.__gnu_cxx::__normal_iterator.0", %"class.__gnu_cxx::__normal_iterator.0"* %__last, i32 0, i32 0
  store i32* %__last.coerce, i32** %coerce.dive1, align 8
  call void @llvm.dbg.declare(metadata %"class.__gnu_cxx::__normal_iterator.0"* %__first, metadata !3131, metadata !DIExpression()), !dbg !3132
  call void @llvm.dbg.declare(metadata %"class.__gnu_cxx::__normal_iterator.0"* %__last, metadata !3133, metadata !DIExpression()), !dbg !3134
  store i32* %__result, i32** %__result.addr, align 8
  call void @llvm.dbg.declare(metadata i32** %__result.addr, metadata !3135, metadata !DIExpression()), !dbg !3136
  %i = bitcast %"class.__gnu_cxx::__normal_iterator.0"* %agg.tmp to i8*, !dbg !3137
  %i1 = bitcast %"class.__gnu_cxx::__normal_iterator.0"* %__first to i8*, !dbg !3137
  call void @llvm.memcpy.p0i8.p0i8.i64(i8* align 8 %i, i8* align 8 %i1, i64 8, i1 false), !dbg !3137
  %coerce.dive2 = getelementptr inbounds %"class.__gnu_cxx::__normal_iterator.0", %"class.__gnu_cxx::__normal_iterator.0"* %agg.tmp, i32 0, i32 0, !dbg !3138
  %i2 = load i32*, i32** %coerce.dive2, align 8, !dbg !3138
  %call = call noundef i32* @_ZSt12__niter_baseIPKiSt6vectorIiSaIiEEET_N9__gnu_cxx17__normal_iteratorIS5_T0_EE(i32* %i2) #3, !dbg !3138
  %i3 = bitcast %"class.__gnu_cxx::__normal_iterator.0"* %agg.tmp3 to i8*, !dbg !3139
  %i4 = bitcast %"class.__gnu_cxx::__normal_iterator.0"* %__last to i8*, !dbg !3139
  call void @llvm.memcpy.p0i8.p0i8.i64(i8* align 8 %i3, i8* align 8 %i4, i64 8, i1 false), !dbg !3139
  %coerce.dive4 = getelementptr inbounds %"class.__gnu_cxx::__normal_iterator.0", %"class.__gnu_cxx::__normal_iterator.0"* %agg.tmp3, i32 0, i32 0, !dbg !3140
  %i5 = load i32*, i32** %coerce.dive4, align 8, !dbg !3140
  %call5 = call noundef i32* @_ZSt12__niter_baseIPKiSt6vectorIiSaIiEEET_N9__gnu_cxx17__normal_iteratorIS5_T0_EE(i32* %i5) #3, !dbg !3140
  %i6 = load i32*, i32** %__result.addr, align 8, !dbg !3141
  %call6 = call noundef i32* @_ZSt12__niter_baseIPiET_S1_(i32* noundef %i6) #3, !dbg !3142
  %call7 = call noundef i32* @_ZSt14__copy_move_a1ILb0EPKiPiET1_T0_S4_S3_(i32* noundef %call, i32* noundef %call5, i32* noundef %call6), !dbg !3143
  %call8 = call noundef i32* @_ZSt12__niter_wrapIPiET_RKS1_S1_(i32** noundef nonnull align 8 dereferenceable(8) %__result.addr, i32* noundef %call7), !dbg !3144
  ret i32* %call8, !dbg !3145
}

; Function Attrs: mustprogress noinline nounwind uwtable
define linkonce_odr dso_local i32* @_ZSt12__miter_baseIN9__gnu_cxx17__normal_iteratorIPKiSt6vectorIiSaIiEEEEET_S8_(i32* %__it.coerce) #6 comdat !dbg !3146 {
entry:
  %retval = alloca %"class.__gnu_cxx::__normal_iterator.0", align 8
  %__it = alloca %"class.__gnu_cxx::__normal_iterator.0", align 8
  %coerce.dive = getelementptr inbounds %"class.__gnu_cxx::__normal_iterator.0", %"class.__gnu_cxx::__normal_iterator.0"* %__it, i32 0, i32 0
  store i32* %__it.coerce, i32** %coerce.dive, align 8
  call void @llvm.dbg.declare(metadata %"class.__gnu_cxx::__normal_iterator.0"* %__it, metadata !3152, metadata !DIExpression()), !dbg !3153
  %i = bitcast %"class.__gnu_cxx::__normal_iterator.0"* %retval to i8*, !dbg !3154
  %i1 = bitcast %"class.__gnu_cxx::__normal_iterator.0"* %__it to i8*, !dbg !3154
  call void @llvm.memcpy.p0i8.p0i8.i64(i8* align 8 %i, i8* align 8 %i1, i64 8, i1 false), !dbg !3154
  %coerce.dive1 = getelementptr inbounds %"class.__gnu_cxx::__normal_iterator.0", %"class.__gnu_cxx::__normal_iterator.0"* %retval, i32 0, i32 0, !dbg !3155
  %i2 = load i32*, i32** %coerce.dive1, align 8, !dbg !3155
  ret i32* %i2, !dbg !3155
}

; Function Attrs: mustprogress noinline nounwind uwtable
define linkonce_odr dso_local noundef i32* @_ZSt12__niter_wrapIPiET_RKS1_S1_(i32** noundef nonnull align 8 dereferenceable(8) %arg, i32* noundef %__res) #6 comdat !dbg !3156 {
entry:
  call void @llvm.dbg.value(metadata i32** %arg, metadata !3159, metadata !DIExpression()), !dbg !3160
  call void @llvm.dbg.value(metadata i32* %__res, metadata !3161, metadata !DIExpression()), !dbg !3160
  ret i32* %__res, !dbg !3162
}

; Function Attrs: mustprogress noinline uwtable
define linkonce_odr dso_local noundef i32* @_ZSt14__copy_move_a1ILb0EPKiPiET1_T0_S4_S3_(i32* noundef %__first, i32* noundef %__last, i32* noundef %__result) #4 comdat !dbg !3163 {
entry:
  call void @llvm.dbg.value(metadata i32* %__first, metadata !3168, metadata !DIExpression()), !dbg !3169
  call void @llvm.dbg.value(metadata i32* %__last, metadata !3170, metadata !DIExpression()), !dbg !3169
  call void @llvm.dbg.value(metadata i32* %__result, metadata !3171, metadata !DIExpression()), !dbg !3169
  %call = call noundef i32* @_ZSt14__copy_move_a2ILb0EPKiPiET1_T0_S4_S3_(i32* noundef %__first, i32* noundef %__last, i32* noundef %__result), !dbg !3172
  ret i32* %call, !dbg !3173
}

; Function Attrs: mustprogress noinline nounwind uwtable
define linkonce_odr dso_local noundef i32* @_ZSt12__niter_baseIPKiSt6vectorIiSaIiEEET_N9__gnu_cxx17__normal_iteratorIS5_T0_EE(i32* %__it.coerce) #6 comdat !dbg !3174 {
entry:
  %__it = alloca %"class.__gnu_cxx::__normal_iterator.0", align 8
  %coerce.dive = getelementptr inbounds %"class.__gnu_cxx::__normal_iterator.0", %"class.__gnu_cxx::__normal_iterator.0"* %__it, i32 0, i32 0
  store i32* %__it.coerce, i32** %coerce.dive, align 8
  call void @llvm.dbg.declare(metadata %"class.__gnu_cxx::__normal_iterator.0"* %__it, metadata !3177, metadata !DIExpression()), !dbg !3178
  %call = call noundef nonnull align 8 dereferenceable(8) i32** @_ZNK9__gnu_cxx17__normal_iteratorIPKiSt6vectorIiSaIiEEE4baseEv(%"class.__gnu_cxx::__normal_iterator.0"* noundef nonnull align 8 dereferenceable(8) %__it) #3, !dbg !3179
  %i = load i32*, i32** %call, align 8, !dbg !3179
  ret i32* %i, !dbg !3180
}

; Function Attrs: mustprogress noinline nounwind uwtable
define linkonce_odr dso_local noundef i32* @_ZSt12__niter_baseIPiET_S1_(i32* noundef %__it) #6 comdat !dbg !3181 {
entry:
  call void @llvm.dbg.value(metadata i32* %__it, metadata !3184, metadata !DIExpression()), !dbg !3185
  ret i32* %__it, !dbg !3186
}

; Function Attrs: mustprogress noinline uwtable
define linkonce_odr dso_local noundef i32* @_ZSt14__copy_move_a2ILb0EPKiPiET1_T0_S4_S3_(i32* noundef %__first, i32* noundef %__last, i32* noundef %__result) #4 comdat !dbg !3187 {
entry:
  call void @llvm.dbg.value(metadata i32* %__first, metadata !3188, metadata !DIExpression()), !dbg !3189
  call void @llvm.dbg.value(metadata i32* %__last, metadata !3190, metadata !DIExpression()), !dbg !3189
  call void @llvm.dbg.value(metadata i32* %__result, metadata !3191, metadata !DIExpression()), !dbg !3189
  %call = call noundef i32* @_ZNSt11__copy_moveILb0ELb1ESt26random_access_iterator_tagE8__copy_mIiEEPT_PKS3_S6_S4_(i32* noundef %__first, i32* noundef %__last, i32* noundef %__result), !dbg !3192
  ret i32* %call, !dbg !3193
}

; Function Attrs: mustprogress noinline nounwind uwtable
define linkonce_odr dso_local noundef i32* @_ZNSt11__copy_moveILb0ELb1ESt26random_access_iterator_tagE8__copy_mIiEEPT_PKS3_S6_S4_(i32* noundef %__first, i32* noundef %__last, i32* noundef %__result) #6 comdat align 2 !dbg !3194 {
entry:
  call void @llvm.dbg.value(metadata i32* %__first, metadata !3199, metadata !DIExpression()), !dbg !3200
  call void @llvm.dbg.value(metadata i32* %__last, metadata !3201, metadata !DIExpression()), !dbg !3200
  call void @llvm.dbg.value(metadata i32* %__result, metadata !3202, metadata !DIExpression()), !dbg !3200
  %sub.ptr.lhs.cast = ptrtoint i32* %__last to i64, !dbg !3203
  %sub.ptr.rhs.cast = ptrtoint i32* %__first to i64, !dbg !3203
  %sub.ptr.sub = sub i64 %sub.ptr.lhs.cast, %sub.ptr.rhs.cast, !dbg !3203
  %sub.ptr.div = sdiv exact i64 %sub.ptr.sub, 4, !dbg !3203
  call void @llvm.dbg.value(metadata i64 %sub.ptr.div, metadata !3204, metadata !DIExpression()), !dbg !3200
  %tobool = icmp ne i64 %sub.ptr.div, 0, !dbg !3206
  br i1 %tobool, label %if.then, label %if.end, !dbg !3208

if.then:                                          ; preds = %entry
  %i4 = bitcast i32* %__result to i8*, !dbg !3209
  %i6 = bitcast i32* %__first to i8*, !dbg !3209
  %mul = mul i64 4, %sub.ptr.div, !dbg !3210
  call void @llvm.memmove.p0i8.p0i8.i64(i8* align 4 %i4, i8* align 4 %i6, i64 %mul, i1 false), !dbg !3209
  br label %if.end, !dbg !3209

if.end:                                           ; preds = %if.then, %entry
  %add.ptr = getelementptr inbounds i32, i32* %__result, i64 %sub.ptr.div, !dbg !3211
  ret i32* %add.ptr, !dbg !3212
}

; Function Attrs: argmemonly nofree nounwind willreturn
declare void @llvm.memmove.p0i8.p0i8.i64(i8* nocapture writeonly, i8* nocapture readonly, i64, i1 immarg) #10

; Function Attrs: mustprogress noinline nounwind uwtable
define linkonce_odr dso_local noundef nonnull align 8 dereferenceable(8) i32** @_ZNK9__gnu_cxx17__normal_iteratorIPKiSt6vectorIiSaIiEEE4baseEv(%"class.__gnu_cxx::__normal_iterator.0"* noundef nonnull align 8 dereferenceable(8) %this) #6 comdat align 2 !dbg !3213 {
entry:
  call void @llvm.dbg.value(metadata %"class.__gnu_cxx::__normal_iterator.0"* %this, metadata !3214, metadata !DIExpression()), !dbg !3216
  %_M_current = getelementptr inbounds %"class.__gnu_cxx::__normal_iterator.0", %"class.__gnu_cxx::__normal_iterator.0"* %this, i32 0, i32 0, !dbg !3217
  ret i32** %_M_current, !dbg !3218
}

; Function Attrs: noinline nounwind uwtable
define linkonce_odr dso_local void @_ZN9__gnu_cxx17__normal_iteratorIPKiSt6vectorIiSaIiEEEC2ERKS2_(%"class.__gnu_cxx::__normal_iterator.0"* noundef nonnull align 8 dereferenceable(8) %this, i32** noundef nonnull align 8 dereferenceable(8) %__i) unnamed_addr #7 comdat align 2 !dbg !3219 {
entry:
  call void @llvm.dbg.value(metadata %"class.__gnu_cxx::__normal_iterator.0"* %this, metadata !3220, metadata !DIExpression()), !dbg !3222
  call void @llvm.dbg.value(metadata i32** %__i, metadata !3223, metadata !DIExpression()), !dbg !3222
  %_M_current = getelementptr inbounds %"class.__gnu_cxx::__normal_iterator.0", %"class.__gnu_cxx::__normal_iterator.0"* %this, i32 0, i32 0, !dbg !3224
  %i1 = load i32*, i32** %__i, align 8, !dbg !3225
  store i32* %i1, i32** %_M_current, align 8, !dbg !3224
  ret void, !dbg !3226
}

; Function Attrs: mustprogress noinline uwtable
define linkonce_odr dso_local void @_ZNSt12_Vector_baseIiSaIiEE13_M_deallocateEPim(%"struct.std::_Vector_base"* noundef nonnull align 8 dereferenceable(24) %this, i32* noundef %__p, i64 noundef %__n) #4 comdat align 2 !dbg !3227 {
entry:
  call void @llvm.dbg.value(metadata %"struct.std::_Vector_base"* %this, metadata !3228, metadata !DIExpression()), !dbg !3229
  call void @llvm.dbg.value(metadata i32* %__p, metadata !3230, metadata !DIExpression()), !dbg !3229
  call void @llvm.dbg.value(metadata i64 %__n, metadata !3231, metadata !DIExpression()), !dbg !3229
  %tobool = icmp ne i32* %__p, null, !dbg !3232
  br i1 %tobool, label %if.then, label %if.end, !dbg !3234

if.then:                                          ; preds = %entry
  %_M_impl = getelementptr inbounds %"struct.std::_Vector_base", %"struct.std::_Vector_base"* %this, i32 0, i32 0, !dbg !3235
  %i1 = bitcast %"struct.std::_Vector_base<int, std::allocator<int>>::_Vector_impl"* %_M_impl to %"class.std::allocator"*, !dbg !3235
  call void @_ZNSt16allocator_traitsISaIiEE10deallocateERS0_Pim(%"class.std::allocator"* noundef nonnull align 1 dereferenceable(1) %i1, i32* noundef %__p, i64 noundef %__n), !dbg !3236
  br label %if.end, !dbg !3236

if.end:                                           ; preds = %if.then, %entry
  ret void, !dbg !3237
}

; Function Attrs: mustprogress noinline uwtable
define linkonce_odr dso_local void @_ZNSt16allocator_traitsISaIiEE10deallocateERS0_Pim(%"class.std::allocator"* noundef nonnull align 1 dereferenceable(1) %__a, i32* noundef %__p, i64 noundef %__n) #4 comdat align 2 !dbg !3238 {
entry:
  call void @llvm.dbg.value(metadata %"class.std::allocator"* %__a, metadata !3239, metadata !DIExpression()), !dbg !3240
  call void @llvm.dbg.value(metadata i32* %__p, metadata !3241, metadata !DIExpression()), !dbg !3240
  call void @llvm.dbg.value(metadata i64 %__n, metadata !3242, metadata !DIExpression()), !dbg !3240
  %i1 = bitcast %"class.std::allocator"* %__a to %"class.__gnu_cxx::new_allocator"*, !dbg !3243
  call void @_ZN9__gnu_cxx13new_allocatorIiE10deallocateEPim(%"class.__gnu_cxx::new_allocator"* noundef nonnull align 1 dereferenceable(1) %i1, i32* noundef %__p, i64 noundef %__n), !dbg !3244
  ret void, !dbg !3245
}

; Function Attrs: mustprogress noinline nounwind uwtable
define linkonce_odr dso_local void @_ZN9__gnu_cxx13new_allocatorIiE10deallocateEPim(%"class.__gnu_cxx::new_allocator"* noundef nonnull align 1 dereferenceable(1) %this, i32* noundef %__p, i64 noundef %__t) #6 comdat align 2 !dbg !3246 {
entry:
  call void @llvm.dbg.value(metadata %"class.__gnu_cxx::new_allocator"* %this, metadata !3247, metadata !DIExpression()), !dbg !3248
  call void @llvm.dbg.value(metadata i32* %__p, metadata !3249, metadata !DIExpression()), !dbg !3248
  call void @llvm.dbg.value(metadata i64 %__t, metadata !3250, metadata !DIExpression()), !dbg !3248
  %i1 = bitcast i32* %__p to i8*, !dbg !3251
  call void @_ZdlPv(i8* noundef %i1) #3, !dbg !3252
  ret void, !dbg !3253
}

; Function Attrs: nobuiltin nounwind
declare void @_ZdlPv(i8* noundef) #14

; Function Attrs: mustprogress noinline uwtable
define linkonce_odr dso_local noundef i64 @_ZNSt6vectorIiSaIiEE17_S_check_init_lenEmRKS0_(i64 noundef %__n, %"class.std::allocator"* noundef nonnull align 1 dereferenceable(1) %__a) #4 comdat align 2 !dbg !3254 {
entry:
  %ref.tmp = alloca %"class.std::allocator", align 1
  call void @llvm.dbg.value(metadata i64 %__n, metadata !3255, metadata !DIExpression()), !dbg !3256
  call void @llvm.dbg.value(metadata %"class.std::allocator"* %__a, metadata !3257, metadata !DIExpression()), !dbg !3256
  call void @_ZNSaIiEC2ERKS_(%"class.std::allocator"* noundef nonnull align 1 dereferenceable(1) %ref.tmp, %"class.std::allocator"* noundef nonnull align 1 dereferenceable(1) %__a) #3, !dbg !3258
  %call = call noundef i64 @_ZNSt6vectorIiSaIiEE11_S_max_sizeERKS0_(%"class.std::allocator"* noundef nonnull align 1 dereferenceable(1) %ref.tmp) #3, !dbg !3260
  %cmp = icmp ugt i64 %__n, %call, !dbg !3261
  call void @_ZNSaIiED2Ev(%"class.std::allocator"* noundef nonnull align 1 dereferenceable(1) %ref.tmp) #3, !dbg !3262
  br i1 %cmp, label %if.then, label %if.end, !dbg !3263

if.then:                                          ; preds = %entry
  call void @_ZSt20__throw_length_errorPKc(i8* noundef getelementptr inbounds ([49 x i8], [49 x i8]* @.str.1, i64 0, i64 0)) #16, !dbg !3264
  unreachable, !dbg !3264

if.end:                                           ; preds = %entry
  ret i64 %__n, !dbg !3265
}

; Function Attrs: mustprogress noinline uwtable
define linkonce_odr dso_local void @_ZNSt6vectorIiSaIiEE21_M_default_initializeEm(%"class.std::vector"* noundef nonnull align 8 dereferenceable(24) %this, i64 noundef %__n) #4 comdat align 2 !dbg !3266 {
entry:
  call void @llvm.dbg.value(metadata %"class.std::vector"* %this, metadata !3267, metadata !DIExpression()), !dbg !3268
  call void @llvm.dbg.value(metadata i64 %__n, metadata !3269, metadata !DIExpression()), !dbg !3268
  %i = bitcast %"class.std::vector"* %this to %"struct.std::_Vector_base"*, !dbg !3270
  %_M_impl = getelementptr inbounds %"struct.std::_Vector_base", %"struct.std::_Vector_base"* %i, i32 0, i32 0, !dbg !3270
  %i1 = bitcast %"struct.std::_Vector_base<int, std::allocator<int>>::_Vector_impl"* %_M_impl to %"struct.std::_Vector_base<int, std::allocator<int>>::_Vector_impl_data"*, !dbg !3271
  %_M_start = getelementptr inbounds %"struct.std::_Vector_base<int, std::allocator<int>>::_Vector_impl_data", %"struct.std::_Vector_base<int, std::allocator<int>>::_Vector_impl_data"* %i1, i32 0, i32 0, !dbg !3272
  %i2 = load i32*, i32** %_M_start, align 8, !dbg !3272
  %i4 = bitcast %"class.std::vector"* %this to %"struct.std::_Vector_base"*, !dbg !3273
  %call = call noundef nonnull align 1 dereferenceable(1) %"class.std::allocator"* @_ZNSt12_Vector_baseIiSaIiEE19_M_get_Tp_allocatorEv(%"struct.std::_Vector_base"* noundef nonnull align 8 dereferenceable(24) %i4) #3, !dbg !3273
  %call2 = call noundef i32* @_ZSt27__uninitialized_default_n_aIPimiET_S1_T0_RSaIT1_E(i32* noundef %i2, i64 noundef %__n, %"class.std::allocator"* noundef nonnull align 1 dereferenceable(1) %call), !dbg !3274
  %i5 = bitcast %"class.std::vector"* %this to %"struct.std::_Vector_base"*, !dbg !3275
  %_M_impl3 = getelementptr inbounds %"struct.std::_Vector_base", %"struct.std::_Vector_base"* %i5, i32 0, i32 0, !dbg !3275
  %i6 = bitcast %"struct.std::_Vector_base<int, std::allocator<int>>::_Vector_impl"* %_M_impl3 to %"struct.std::_Vector_base<int, std::allocator<int>>::_Vector_impl_data"*, !dbg !3276
  %_M_finish = getelementptr inbounds %"struct.std::_Vector_base<int, std::allocator<int>>::_Vector_impl_data", %"struct.std::_Vector_base<int, std::allocator<int>>::_Vector_impl_data"* %i6, i32 0, i32 1, !dbg !3277
  store i32* %call2, i32** %_M_finish, align 8, !dbg !3278
  ret void, !dbg !3279
}

; Function Attrs: mustprogress noinline nounwind uwtable
define linkonce_odr dso_local noundef i64 @_ZNSt6vectorIiSaIiEE11_S_max_sizeERKS0_(%"class.std::allocator"* noundef nonnull align 1 dereferenceable(1) %__a) #6 comdat align 2 personality i8* bitcast (i32 (...)* @__gxx_personality_v0 to i8*) !dbg !3280 {
entry:
  %__diffmax = alloca i64, align 8
  %__allocmax = alloca i64, align 8
  call void @llvm.dbg.value(metadata %"class.std::allocator"* %__a, metadata !3281, metadata !DIExpression()), !dbg !3282
  call void @llvm.dbg.declare(metadata i64* %__diffmax, metadata !3283, metadata !DIExpression()), !dbg !3285
  store i64 2305843009213693951, i64* %__diffmax, align 8, !dbg !3285
  call void @llvm.dbg.declare(metadata i64* %__allocmax, metadata !3286, metadata !DIExpression()), !dbg !3287
  %call = call noundef i64 @_ZNSt16allocator_traitsISaIiEE8max_sizeERKS0_(%"class.std::allocator"* noundef nonnull align 1 dereferenceable(1) %__a) #3, !dbg !3288
  store i64 %call, i64* %__allocmax, align 8, !dbg !3287
  %call1 = invoke noundef nonnull align 8 dereferenceable(8) i64* @_ZSt3minImERKT_S2_S2_(i64* noundef nonnull align 8 dereferenceable(8) %__diffmax, i64* noundef nonnull align 8 dereferenceable(8) %__allocmax)
          to label %invoke.cont unwind label %terminate.lpad, !dbg !3289

invoke.cont:                                      ; preds = %entry
  %i1 = load i64, i64* %call1, align 8, !dbg !3289
  ret i64 %i1, !dbg !3290

terminate.lpad:                                   ; preds = %entry
  %i2 = landingpad { i8*, i32 }
          catch i8* null, !dbg !3289
  %i3 = extractvalue { i8*, i32 } %i2, 0, !dbg !3289
  call void @__clang_call_terminate(i8* %i3) #15, !dbg !3289
  unreachable, !dbg !3289
}

; Function Attrs: noreturn
declare void @_ZSt20__throw_length_errorPKc(i8* noundef) #12

; Function Attrs: mustprogress noinline nounwind uwtable
define linkonce_odr dso_local noundef i64 @_ZNSt16allocator_traitsISaIiEE8max_sizeERKS0_(%"class.std::allocator"* noundef nonnull align 1 dereferenceable(1) %__a) #6 comdat align 2 !dbg !3291 {
entry:
  call void @llvm.dbg.value(metadata %"class.std::allocator"* %__a, metadata !3292, metadata !DIExpression()), !dbg !3293
  %i1 = bitcast %"class.std::allocator"* %__a to %"class.__gnu_cxx::new_allocator"*, !dbg !3294
  %call = call noundef i64 @_ZNK9__gnu_cxx13new_allocatorIiE8max_sizeEv(%"class.__gnu_cxx::new_allocator"* noundef nonnull align 1 dereferenceable(1) %i1) #3, !dbg !3295
  ret i64 %call, !dbg !3296
}

; Function Attrs: mustprogress noinline nounwind uwtable
define linkonce_odr dso_local noundef nonnull align 8 dereferenceable(8) i64* @_ZSt3minImERKT_S2_S2_(i64* noundef nonnull align 8 dereferenceable(8) %__a, i64* noundef nonnull align 8 dereferenceable(8) %__b) #6 comdat !dbg !3297 {
entry:
  call void @llvm.dbg.value(metadata i64* %__a, metadata !3304, metadata !DIExpression()), !dbg !3305
  call void @llvm.dbg.value(metadata i64* %__b, metadata !3306, metadata !DIExpression()), !dbg !3305
  %i1 = load i64, i64* %__b, align 8, !dbg !3307
  %i3 = load i64, i64* %__a, align 8, !dbg !3309
  %cmp = icmp ult i64 %i1, %i3, !dbg !3310
  br i1 %cmp, label %if.then, label %if.end, !dbg !3311

if.then:                                          ; preds = %entry
  br label %return, !dbg !3312

if.end:                                           ; preds = %entry
  br label %return, !dbg !3313

return:                                           ; preds = %if.end, %if.then
  %retval.0 = phi i64* [ %__b, %if.then ], [ %__a, %if.end ], !dbg !3305
  ret i64* %retval.0, !dbg !3314
}

; Function Attrs: mustprogress noinline nounwind uwtable
define linkonce_odr dso_local noundef i64 @_ZNK9__gnu_cxx13new_allocatorIiE8max_sizeEv(%"class.__gnu_cxx::new_allocator"* noundef nonnull align 1 dereferenceable(1) %this) #6 comdat align 2 !dbg !3315 {
entry:
  call void @llvm.dbg.value(metadata %"class.__gnu_cxx::new_allocator"* %this, metadata !3316, metadata !DIExpression()), !dbg !3317
  %call = call noundef i64 @_ZNK9__gnu_cxx13new_allocatorIiE11_M_max_sizeEv(%"class.__gnu_cxx::new_allocator"* noundef nonnull align 1 dereferenceable(1) %this) #3, !dbg !3318
  ret i64 %call, !dbg !3319
}

; Function Attrs: mustprogress noinline uwtable
define linkonce_odr dso_local noundef i32* @_ZSt27__uninitialized_default_n_aIPimiET_S1_T0_RSaIT1_E(i32* noundef %__first, i64 noundef %__n, %"class.std::allocator"* noundef nonnull align 1 dereferenceable(1) %arg) #4 comdat !dbg !3320 {
entry:
  call void @llvm.dbg.value(metadata i32* %__first, metadata !3325, metadata !DIExpression()), !dbg !3326
  call void @llvm.dbg.value(metadata i64 %__n, metadata !3327, metadata !DIExpression()), !dbg !3326
  call void @llvm.dbg.value(metadata %"class.std::allocator"* %arg, metadata !3328, metadata !DIExpression()), !dbg !3326
  %call = call noundef i32* @_ZSt25__uninitialized_default_nIPimET_S1_T0_(i32* noundef %__first, i64 noundef %__n), !dbg !3329
  ret i32* %call, !dbg !3330
}

; Function Attrs: mustprogress noinline uwtable
define linkonce_odr dso_local noundef i32* @_ZSt25__uninitialized_default_nIPimET_S1_T0_(i32* noundef %__first, i64 noundef %__n) #4 comdat !dbg !3331 {
entry:
  call void @llvm.dbg.value(metadata i32* %__first, metadata !3335, metadata !DIExpression()), !dbg !3336
  call void @llvm.dbg.value(metadata i64 %__n, metadata !3337, metadata !DIExpression()), !dbg !3336
  call void @llvm.dbg.value(metadata i8 1, metadata !3338, metadata !DIExpression()), !dbg !3336
  %call = call noundef i32* @_ZNSt27__uninitialized_default_n_1ILb1EE18__uninit_default_nIPimEET_S3_T0_(i32* noundef %__first, i64 noundef %__n), !dbg !3339
  ret i32* %call, !dbg !3340
}

; Function Attrs: mustprogress noinline uwtable
define linkonce_odr dso_local noundef i32* @_ZNSt27__uninitialized_default_n_1ILb1EE18__uninit_default_nIPimEET_S3_T0_(i32* noundef %__first, i64 noundef %__n) #4 comdat align 2 !dbg !3341 {
entry:
  call void @llvm.dbg.value(metadata i32* %__first, metadata !3346, metadata !DIExpression()), !dbg !3347
  call void @llvm.dbg.value(metadata i64 %__n, metadata !3348, metadata !DIExpression()), !dbg !3347
  %cmp = icmp ugt i64 %__n, 0, !dbg !3349
  br i1 %cmp, label %if.then, label %if.end, !dbg !3351

if.then:                                          ; preds = %entry
  %call = call noundef i32* @_ZSt11__addressofIiEPT_RS0_(i32* noundef nonnull align 4 dereferenceable(4) %__first) #3, !dbg !3352
  call void @llvm.dbg.value(metadata i32* %call, metadata !3354, metadata !DIExpression()), !dbg !3357
  call void @_ZSt10_ConstructIiJEEvPT_DpOT0_(i32* noundef %call), !dbg !3358
  %incdec.ptr = getelementptr inbounds i32, i32* %__first, i32 1, !dbg !3359
  call void @llvm.dbg.value(metadata i32* %incdec.ptr, metadata !3346, metadata !DIExpression()), !dbg !3347
  %sub = sub i64 %__n, 1, !dbg !3360
  %call1 = call noundef i32* @_ZSt6fill_nIPimiET_S1_T0_RKT1_(i32* noundef %incdec.ptr, i64 noundef %sub, i32* noundef nonnull align 4 dereferenceable(4) %call), !dbg !3361
  call void @llvm.dbg.value(metadata i32* %call1, metadata !3346, metadata !DIExpression()), !dbg !3347
  br label %if.end, !dbg !3362

if.end:                                           ; preds = %if.then, %entry
  %__first.addr.0 = phi i32* [ %call1, %if.then ], [ %__first, %entry ]
  call void @llvm.dbg.value(metadata i32* %__first.addr.0, metadata !3346, metadata !DIExpression()), !dbg !3347
  ret i32* %__first.addr.0, !dbg !3363
}

; Function Attrs: mustprogress noinline nounwind uwtable
define linkonce_odr dso_local noundef i32* @_ZSt11__addressofIiEPT_RS0_(i32* noundef nonnull align 4 dereferenceable(4) %__r) #6 comdat !dbg !3364 {
entry:
  call void @llvm.dbg.value(metadata i32* %__r, metadata !3367, metadata !DIExpression()), !dbg !3368
  ret i32* %__r, !dbg !3369
}

; Function Attrs: mustprogress noinline nounwind uwtable
define linkonce_odr dso_local void @_ZSt10_ConstructIiJEEvPT_DpOT0_(i32* noundef %__p) #6 comdat !dbg !3370 {
entry:
  call void @llvm.dbg.value(metadata i32* %__p, metadata !3376, metadata !DIExpression()), !dbg !3377
  %i1 = bitcast i32* %__p to i8*, !dbg !3378
  %i2 = bitcast i8* %i1 to i32*, !dbg !3379
  store i32 0, i32* %i2, align 4, !dbg !3379
  ret void, !dbg !3380
}

; Function Attrs: mustprogress noinline uwtable
define linkonce_odr dso_local noundef i32* @_ZSt6fill_nIPimiET_S1_T0_RKT1_(i32* noundef %__first, i64 noundef %__n, i32* noundef nonnull align 4 dereferenceable(4) %__value) #4 comdat !dbg !3381 {
entry:
  %__first.addr = alloca i32*, align 8
  store i32* %__first, i32** %__first.addr, align 8
  call void @llvm.dbg.declare(metadata i32** %__first.addr, metadata !3385, metadata !DIExpression()), !dbg !3386
  call void @llvm.dbg.value(metadata i64 %__n, metadata !3387, metadata !DIExpression()), !dbg !3388
  call void @llvm.dbg.value(metadata i32* %__value, metadata !3389, metadata !DIExpression()), !dbg !3388
  %i = load i32*, i32** %__first.addr, align 8, !dbg !3390
  %call = call noundef i64 @_ZSt17__size_to_integerm(i64 noundef %__n), !dbg !3391
  call void @_ZSt19__iterator_categoryIPiENSt15iterator_traitsIT_E17iterator_categoryERKS2_(i32** noundef nonnull align 8 dereferenceable(8) %__first.addr), !dbg !3392
  %call1 = call noundef i32* @_ZSt10__fill_n_aIPimiET_S1_T0_RKT1_St26random_access_iterator_tag(i32* noundef %i, i64 noundef %call, i32* noundef nonnull align 4 dereferenceable(4) %__value), !dbg !3393
  ret i32* %call1, !dbg !3394
}

; Function Attrs: mustprogress noinline uwtable
define linkonce_odr dso_local noundef i32* @_ZSt10__fill_n_aIPimiET_S1_T0_RKT1_St26random_access_iterator_tag(i32* noundef %__first, i64 noundef %__n, i32* noundef nonnull align 4 dereferenceable(4) %__value) #4 comdat !dbg !3395 {
entry:
  call void @llvm.dbg.value(metadata i32* %__first, metadata !3400, metadata !DIExpression()), !dbg !3401
  call void @llvm.dbg.value(metadata i64 %__n, metadata !3402, metadata !DIExpression()), !dbg !3401
  call void @llvm.dbg.value(metadata i32* %__value, metadata !3403, metadata !DIExpression()), !dbg !3401
  call void @llvm.dbg.declare(metadata %"struct.std::random_access_iterator_tag"* undef, metadata !3404, metadata !DIExpression()), !dbg !3405
  %cmp = icmp ule i64 %__n, 0, !dbg !3406
  br i1 %cmp, label %if.then, label %if.end, !dbg !3408

if.then:                                          ; preds = %entry
  br label %return, !dbg !3409

if.end:                                           ; preds = %entry
  %add.ptr = getelementptr inbounds i32, i32* %__first, i64 %__n, !dbg !3410
  call void @_ZSt8__fill_aIPiiEvT_S1_RKT0_(i32* noundef %__first, i32* noundef %add.ptr, i32* noundef nonnull align 4 dereferenceable(4) %__value), !dbg !3411
  %add.ptr1 = getelementptr inbounds i32, i32* %__first, i64 %__n, !dbg !3412
  br label %return, !dbg !3413

return:                                           ; preds = %if.end, %if.then
  %retval.0 = phi i32* [ %__first, %if.then ], [ %add.ptr1, %if.end ], !dbg !3401
  ret i32* %retval.0, !dbg !3414
}

; Function Attrs: mustprogress noinline nounwind uwtable
define linkonce_odr dso_local noundef i64 @_ZSt17__size_to_integerm(i64 noundef %__n) #6 comdat !dbg !3415 {
entry:
  call void @llvm.dbg.value(metadata i64 %__n, metadata !3418, metadata !DIExpression()), !dbg !3419
  ret i64 %__n, !dbg !3420
}

; Function Attrs: mustprogress noinline nounwind uwtable
define linkonce_odr dso_local void @_ZSt19__iterator_categoryIPiENSt15iterator_traitsIT_E17iterator_categoryERKS2_(i32** noundef nonnull align 8 dereferenceable(8) %arg) #6 comdat !dbg !3421 {
entry:
  call void @llvm.dbg.value(metadata i32** %arg, metadata !3427, metadata !DIExpression()), !dbg !3428
  ret void, !dbg !3429
}

; Function Attrs: mustprogress noinline uwtable
define linkonce_odr dso_local void @_ZSt8__fill_aIPiiEvT_S1_RKT0_(i32* noundef %__first, i32* noundef %__last, i32* noundef nonnull align 4 dereferenceable(4) %__value) #4 comdat !dbg !3430 {
entry:
  call void @llvm.dbg.value(metadata i32* %__first, metadata !3435, metadata !DIExpression()), !dbg !3436
  call void @llvm.dbg.value(metadata i32* %__last, metadata !3437, metadata !DIExpression()), !dbg !3436
  call void @llvm.dbg.value(metadata i32* %__value, metadata !3438, metadata !DIExpression()), !dbg !3436
  call void @_ZSt9__fill_a1IPiiEN9__gnu_cxx11__enable_ifIXsr11__is_scalarIT0_EE7__valueEvE6__typeET_S6_RKS3_(i32* noundef %__first, i32* noundef %__last, i32* noundef nonnull align 4 dereferenceable(4) %__value), !dbg !3439
  ret void, !dbg !3440
}

; Function Attrs: mustprogress noinline nounwind uwtable
define linkonce_odr dso_local void @_ZSt9__fill_a1IPiiEN9__gnu_cxx11__enable_ifIXsr11__is_scalarIT0_EE7__valueEvE6__typeET_S6_RKS3_(i32* noundef %__first, i32* noundef %__last, i32* noundef nonnull align 4 dereferenceable(4) %__value) #6 comdat !dbg !3441 {
entry:
  call void @llvm.dbg.value(metadata i32* %__first, metadata !3449, metadata !DIExpression()), !dbg !3450
  call void @llvm.dbg.value(metadata i32* %__last, metadata !3451, metadata !DIExpression()), !dbg !3450
  call void @llvm.dbg.value(metadata i32* %__value, metadata !3452, metadata !DIExpression()), !dbg !3450
  %i1 = load i32, i32* %__value, align 4, !dbg !3453
  call void @llvm.dbg.value(metadata i32 %i1, metadata !3454, metadata !DIExpression()), !dbg !3450
  br label %for.cond, !dbg !3455

for.cond:                                         ; preds = %for.inc, %entry
  %__first.addr.0 = phi i32* [ %__first, %entry ], [ %incdec.ptr, %for.inc ]
  call void @llvm.dbg.value(metadata i32* %__first.addr.0, metadata !3449, metadata !DIExpression()), !dbg !3450
  %cmp = icmp ne i32* %__first.addr.0, %__last, !dbg !3456
  br i1 %cmp, label %for.body, label %for.end, !dbg !3459

for.body:                                         ; preds = %for.cond
  store i32 %i1, i32* %__first.addr.0, align 4, !dbg !3460
  br label %for.inc, !dbg !3461

for.inc:                                          ; preds = %for.body
  %incdec.ptr = getelementptr inbounds i32, i32* %__first.addr.0, i32 1, !dbg !3462
  call void @llvm.dbg.value(metadata i32* %incdec.ptr, metadata !3449, metadata !DIExpression()), !dbg !3450
  br label %for.cond, !dbg !3463, !llvm.loop !3464

for.end:                                          ; preds = %for.cond
  ret void, !dbg !3466
}

; Function Attrs: mustprogress noinline uwtable
define linkonce_odr dso_local void @_ZSt8_DestroyIPiiEvT_S1_RSaIT0_E(i32* noundef %__first, i32* noundef %__last, %"class.std::allocator"* noundef nonnull align 1 dereferenceable(1) %arg) #4 comdat !dbg !3467 {
entry:
  call void @llvm.dbg.value(metadata i32* %__first, metadata !3470, metadata !DIExpression()), !dbg !3471
  call void @llvm.dbg.value(metadata i32* %__last, metadata !3472, metadata !DIExpression()), !dbg !3471
  call void @llvm.dbg.value(metadata %"class.std::allocator"* %arg, metadata !3473, metadata !DIExpression()), !dbg !3471
  call void @_ZSt8_DestroyIPiEvT_S1_(i32* noundef %__first, i32* noundef %__last), !dbg !3474
  ret void, !dbg !3475
}

; Function Attrs: mustprogress noinline uwtable
define linkonce_odr dso_local void @_ZSt8_DestroyIPiEvT_S1_(i32* noundef %__first, i32* noundef %__last) #4 comdat !dbg !3476 {
entry:
  call void @llvm.dbg.value(metadata i32* %__first, metadata !3480, metadata !DIExpression()), !dbg !3481
  call void @llvm.dbg.value(metadata i32* %__last, metadata !3482, metadata !DIExpression()), !dbg !3481
  call void @_ZNSt12_Destroy_auxILb1EE9__destroyIPiEEvT_S3_(i32* noundef %__first, i32* noundef %__last), !dbg !3483
  ret void, !dbg !3484
}

; Function Attrs: mustprogress noinline nounwind uwtable
define linkonce_odr dso_local void @_ZNSt12_Destroy_auxILb1EE9__destroyIPiEEvT_S3_(i32* noundef %arg, i32* noundef %arg1) #6 comdat align 2 !dbg !3485 {
entry:
  call void @llvm.dbg.value(metadata i32* %arg, metadata !3489, metadata !DIExpression()), !dbg !3490
  call void @llvm.dbg.value(metadata i32* %arg1, metadata !3491, metadata !DIExpression()), !dbg !3490
  ret void, !dbg !3492
}

; Function Attrs: noinline nounwind uwtable
define linkonce_odr dso_local void @_ZN9__gnu_cxx17__normal_iteratorIPiSt6vectorIiSaIiEEEC2ERKS1_(%"class.__gnu_cxx::__normal_iterator"* noundef nonnull align 8 dereferenceable(8) %this, i32** noundef nonnull align 8 dereferenceable(8) %__i) unnamed_addr #7 comdat align 2 !dbg !3493 {
entry:
  call void @llvm.dbg.value(metadata %"class.__gnu_cxx::__normal_iterator"* %this, metadata !3494, metadata !DIExpression()), !dbg !3495
  call void @llvm.dbg.value(metadata i32** %__i, metadata !3496, metadata !DIExpression()), !dbg !3495
  %_M_current = getelementptr inbounds %"class.__gnu_cxx::__normal_iterator", %"class.__gnu_cxx::__normal_iterator"* %this, i32 0, i32 0, !dbg !3497
  %i1 = load i32*, i32** %__i, align 8, !dbg !3498
  store i32* %i1, i32** %_M_current, align 8, !dbg !3497
  ret void, !dbg !3499
}

; Function Attrs: noinline uwtable
define internal void @_GLOBAL__sub_I_permute.cpp() #0 section ".text.startup" !dbg !3500 {
entry:
  call void @__cxx_global_var_init(), !dbg !3502
  ret void
}

; Function Attrs: nofree nosync nounwind readnone speculatable willreturn
declare void @llvm.dbg.value(metadata, metadata, metadata) #5

attributes #0 = { noinline uwtable "frame-pointer"="all" "min-legal-vector-width"="0" "no-trapping-math"="true" "stack-protector-buffer-size"="8" "target-cpu"="x86-64" "target-features"="+cx8,+fxsr,+mmx,+sse,+sse2,+x87" "tune-cpu"="generic" }
attributes #1 = { "frame-pointer"="all" "no-trapping-math"="true" "stack-protector-buffer-size"="8" "target-cpu"="x86-64" "target-features"="+cx8,+fxsr,+mmx,+sse,+sse2,+x87" "tune-cpu"="generic" }
attributes #2 = { nounwind "frame-pointer"="all" "no-trapping-math"="true" "stack-protector-buffer-size"="8" "target-cpu"="x86-64" "target-features"="+cx8,+fxsr,+mmx,+sse,+sse2,+x87" "tune-cpu"="generic" }
attributes #3 = { nounwind }
attributes #4 = { mustprogress noinline uwtable "frame-pointer"="all" "min-legal-vector-width"="0" "no-trapping-math"="true" "stack-protector-buffer-size"="8" "target-cpu"="x86-64" "target-features"="+cx8,+fxsr,+mmx,+sse,+sse2,+x87" "tune-cpu"="generic" }
attributes #5 = { nofree nosync nounwind readnone speculatable willreturn }
attributes #6 = { mustprogress noinline nounwind uwtable "frame-pointer"="all" "min-legal-vector-width"="0" "no-trapping-math"="true" "stack-protector-buffer-size"="8" "target-cpu"="x86-64" "target-features"="+cx8,+fxsr,+mmx,+sse,+sse2,+x87" "tune-cpu"="generic" }
attributes #7 = { noinline nounwind uwtable "frame-pointer"="all" "min-legal-vector-width"="0" "no-trapping-math"="true" "stack-protector-buffer-size"="8" "target-cpu"="x86-64" "target-features"="+cx8,+fxsr,+mmx,+sse,+sse2,+x87" "tune-cpu"="generic" }
attributes #8 = { mustprogress noinline norecurse uwtable "frame-pointer"="all" "min-legal-vector-width"="0" "no-trapping-math"="true" "stack-protector-buffer-size"="8" "target-cpu"="x86-64" "target-features"="+cx8,+fxsr,+mmx,+sse,+sse2,+x87" "tune-cpu"="generic" }
attributes #9 = { noinline noreturn nounwind }
attributes #10 = { argmemonly nofree nounwind willreturn }
attributes #11 = { convergent nofree nosync nounwind readnone willreturn }
attributes #12 = { noreturn "frame-pointer"="all" "no-trapping-math"="true" "stack-protector-buffer-size"="8" "target-cpu"="x86-64" "target-features"="+cx8,+fxsr,+mmx,+sse,+sse2,+x87" "tune-cpu"="generic" }
attributes #13 = { nobuiltin allocsize(0) "frame-pointer"="all" "no-trapping-math"="true" "stack-protector-buffer-size"="8" "target-cpu"="x86-64" "target-features"="+cx8,+fxsr,+mmx,+sse,+sse2,+x87" "tune-cpu"="generic" }
attributes #14 = { nobuiltin nounwind "frame-pointer"="all" "no-trapping-math"="true" "stack-protector-buffer-size"="8" "target-cpu"="x86-64" "target-features"="+cx8,+fxsr,+mmx,+sse,+sse2,+x87" "tune-cpu"="generic" }
attributes #15 = { noreturn nounwind }
attributes #16 = { noreturn }
attributes #17 = { allocsize(0) }

!llvm.dbg.cu = !{!7}
!llvm.module.flags = !{!2184, !2185, !2186, !2187, !2188, !2189, !2190}
!llvm.ident = !{!2191}

!0 = !DIGlobalVariableExpression(var: !1, expr: !DIExpression())
!1 = distinct !DIGlobalVariable(name: "__ioinit", linkageName: "_ZStL8__ioinit", scope: !2, file: !3, line: 74, type: !4, isLocal: true, isDefinition: true)
!2 = !DINamespace(name: "std", scope: null)
!3 = !DIFile(filename: "/usr/bin/../lib/gcc/x86_64-linux-gnu/11/../../../../include/c++/11/iostream", directory: "")
!4 = distinct !DICompositeType(tag: DW_TAG_class_type, name: "Init", scope: !6, file: !5, line: 626, size: 8, flags: DIFlagFwdDecl | DIFlagNonTrivial, identifier: "_ZTSNSt8ios_base4InitE")
!5 = !DIFile(filename: "/usr/bin/../lib/gcc/x86_64-linux-gnu/11/../../../../include/c++/11/bits/ios_base.h", directory: "")
!6 = !DICompositeType(tag: DW_TAG_class_type, name: "ios_base", scope: !2, file: !5, line: 228, size: 1728, flags: DIFlagFwdDecl | DIFlagNonTrivial)
!7 = distinct !DICompileUnit(language: DW_LANG_C_plus_plus_14, file: !8, producer: "Ubuntu clang version 14.0.0-1ubuntu1.1", isOptimized: false, runtimeVersion: 0, emissionKind: FullDebug, enums: !9, retainedTypes: !18, globals: !727, imports: !728, splitDebugInlining: false, nameTableKind: None)
!8 = !DIFile(filename: "permute.cpp", directory: "/home/maxi/C/llvm/passes/varnames/examples", checksumkind: CSK_MD5, checksum: "13343a600fe967f6db6ad1d8de54b867")
!9 = !{!10}
!10 = distinct !DICompositeType(tag: DW_TAG_enumeration_type, name: "_Lock_policy", scope: !12, file: !11, line: 49, baseType: !13, size: 32, elements: !14, identifier: "_ZTSN9__gnu_cxx12_Lock_policyE")
!11 = !DIFile(filename: "/usr/bin/../lib/gcc/x86_64-linux-gnu/11/../../../../include/c++/11/ext/concurrence.h", directory: "")
!12 = !DINamespace(name: "__gnu_cxx", scope: null)
!13 = !DIBasicType(name: "unsigned int", size: 32, encoding: DW_ATE_unsigned)
!14 = !{!15, !16, !17}
!15 = !DIEnumerator(name: "_S_single", value: 0, isUnsigned: true)
!16 = !DIEnumerator(name: "_S_mutex", value: 1, isUnsigned: true)
!17 = !DIEnumerator(name: "_S_atomic", value: 2, isUnsigned: true)
!18 = !{!19, !307, !89, !86, !44, !446, !287, !714, !384, !385, !48, !54, !637, !715, !21, !338, !447, !24, !27, !152}
!19 = !DIDerivedType(tag: DW_TAG_typedef, name: "reverse_iterator", scope: !21, file: !20, line: 423, baseType: !637)
!20 = !DIFile(filename: "/usr/bin/../lib/gcc/x86_64-linux-gnu/11/../../../../include/c++/11/bits/stl_vector.h", directory: "", checksumkind: CSK_MD5, checksum: "abcaf00227294b9790605822a1c03477")
!21 = distinct !DICompositeType(tag: DW_TAG_class_type, name: "vector<int, std::allocator<int> >", scope: !2, file: !20, line: 389, size: 192, flags: DIFlagTypePassByReference | DIFlagNonTrivial, elements: !22, templateParams: !245, identifier: "_ZTSSt6vectorIiSaIiEE")
!22 = !{!23, !246, !265, !281, !282, !288, !291, !294, !298, !304, !308, !314, !319, !323, !326, !329, !332, !335, !364, !365, !369, !372, !375, !378, !381, !443, !501, !502, !503, !506, !511, !512, !513, !514, !515, !516, !517, !520, !521, !524, !525, !526, !527, !530, !531, !539, !546, !549, !550, !551, !554, !557, !558, !559, !562, !565, !568, !572, !573, !576, !579, !582, !585, !588, !591, !594, !595, !596, !597, !598, !601, !602, !605, !606, !607, !614, !617, !622, !625, !628, !631, !634}
!23 = !DIDerivedType(tag: DW_TAG_inheritance, scope: !21, baseType: !24, flags: DIFlagProtected, extraData: i32 0)
!24 = distinct !DICompositeType(tag: DW_TAG_structure_type, name: "_Vector_base<int, std::allocator<int> >", scope: !2, file: !20, line: 84, size: 192, flags: DIFlagTypePassByReference | DIFlagNonTrivial, elements: !25, templateParams: !245, identifier: "_ZTSSt12_Vector_baseIiSaIiEE")
!25 = !{!26, !196, !201, !206, !210, !213, !218, !221, !224, !228, !231, !234, !237, !238, !241, !244}
!26 = !DIDerivedType(tag: DW_TAG_member, name: "_M_impl", scope: !24, file: !20, line: 340, baseType: !27, size: 192)
!27 = distinct !DICompositeType(tag: DW_TAG_structure_type, name: "_Vector_impl", scope: !24, file: !20, line: 128, size: 192, flags: DIFlagTypePassByReference | DIFlagNonTrivial, elements: !28, identifier: "_ZTSNSt12_Vector_baseIiSaIiEE12_Vector_implE")
!28 = !{!29, !151, !176, !180, !185, !189, !193}
!29 = !DIDerivedType(tag: DW_TAG_inheritance, scope: !27, baseType: !30, extraData: i32 0)
!30 = !DIDerivedType(tag: DW_TAG_typedef, name: "_Tp_alloc_type", scope: !24, file: !20, line: 87, baseType: !31)
!31 = !DIDerivedType(tag: DW_TAG_typedef, name: "other", scope: !33, file: !32, line: 120, baseType: !150)
!32 = !DIFile(filename: "/usr/bin/../lib/gcc/x86_64-linux-gnu/11/../../../../include/c++/11/ext/alloc_traits.h", directory: "")
!33 = distinct !DICompositeType(tag: DW_TAG_structure_type, name: "rebind<int>", scope: !34, file: !32, line: 119, size: 8, flags: DIFlagTypePassByValue, elements: !149, templateParams: !98, identifier: "_ZTSN9__gnu_cxx14__alloc_traitsISaIiEiE6rebindIiEE")
!34 = distinct !DICompositeType(tag: DW_TAG_structure_type, name: "__alloc_traits<std::allocator<int>, int>", scope: !12, file: !32, line: 48, size: 8, flags: DIFlagTypePassByValue, elements: !35, templateParams: !147, identifier: "_ZTSN9__gnu_cxx14__alloc_traitsISaIiEiEE")
!35 = !{!36, !133, !136, !139, !143, !144, !145, !146}
!36 = !DIDerivedType(tag: DW_TAG_inheritance, scope: !34, baseType: !37, extraData: i32 0)
!37 = distinct !DICompositeType(tag: DW_TAG_structure_type, name: "allocator_traits<std::allocator<int> >", scope: !2, file: !38, line: 411, size: 8, flags: DIFlagTypePassByValue, elements: !39, templateParams: !131, identifier: "_ZTSSt16allocator_traitsISaIiEE")
!38 = !DIFile(filename: "/usr/bin/../lib/gcc/x86_64-linux-gnu/11/../../../../include/c++/11/bits/alloc_traits.h", directory: "", checksumkind: CSK_MD5, checksum: "937e9d7f00d3ed7cff7ec8fafeb8a8bc")
!39 = !{!40, !115, !119, !122, !128}
!40 = !DISubprogram(name: "allocate", linkageName: "_ZNSt16allocator_traitsISaIiEE8allocateERS0_m", scope: !37, file: !38, line: 463, type: !41, scopeLine: 463, flags: DIFlagPrototyped | DIFlagStaticMember, spFlags: 0)
!41 = !DISubroutineType(types: !42)
!42 = !{!43, !46, !114}
!43 = !DIDerivedType(tag: DW_TAG_typedef, name: "pointer", scope: !37, file: !38, line: 420, baseType: !44)
!44 = !DIDerivedType(tag: DW_TAG_pointer_type, baseType: !45, size: 64)
!45 = !DIBasicType(name: "int", size: 32, encoding: DW_ATE_signed)
!46 = !DIDerivedType(tag: DW_TAG_reference_type, baseType: !47, size: 64)
!47 = !DIDerivedType(tag: DW_TAG_typedef, name: "allocator_type", scope: !37, file: !38, line: 414, baseType: !48)
!48 = distinct !DICompositeType(tag: DW_TAG_class_type, name: "allocator<int>", scope: !2, file: !49, line: 124, size: 8, flags: DIFlagTypePassByReference | DIFlagNonTrivial, elements: !50, templateParams: !98, identifier: "_ZTSSaIiE")
!49 = !DIFile(filename: "/usr/bin/../lib/gcc/x86_64-linux-gnu/11/../../../../include/c++/11/bits/allocator.h", directory: "", checksumkind: CSK_MD5, checksum: "52abf05a7426983321ecef80fe4251be")
!50 = !{!51, !100, !104, !109, !113}
!51 = !DIDerivedType(tag: DW_TAG_inheritance, scope: !48, baseType: !52, flags: DIFlagPublic, extraData: i32 0)
!52 = !DIDerivedType(tag: DW_TAG_typedef, name: "__allocator_base<int>", scope: !2, file: !53, line: 48, baseType: !54)
!53 = !DIFile(filename: "/usr/bin/../lib/gcc/x86_64-linux-gnu/11/../../../../include/x86_64-linux-gnu/c++/11/bits/c++allocator.h", directory: "", checksumkind: CSK_MD5, checksum: "fcdcf111c9228da351f93cd81039e6d6")
!54 = distinct !DICompositeType(tag: DW_TAG_class_type, name: "new_allocator<int>", scope: !12, file: !55, line: 55, size: 8, flags: DIFlagTypePassByReference | DIFlagNonTrivial, elements: !56, templateParams: !98, identifier: "_ZTSN9__gnu_cxx13new_allocatorIiEE")
!55 = !DIFile(filename: "/usr/bin/../lib/gcc/x86_64-linux-gnu/11/../../../../include/c++/11/ext/new_allocator.h", directory: "", checksumkind: CSK_MD5, checksum: "4493add5a3fa57e0ec30b90cd4e81c11")
!56 = !{!57, !61, !66, !67, !74, !82, !91, !94, !97}
!57 = !DISubprogram(name: "new_allocator", scope: !54, file: !55, line: 79, type: !58, scopeLine: 79, flags: DIFlagPublic | DIFlagPrototyped, spFlags: 0)
!58 = !DISubroutineType(types: !59)
!59 = !{null, !60}
!60 = !DIDerivedType(tag: DW_TAG_pointer_type, baseType: !54, size: 64, flags: DIFlagArtificial | DIFlagObjectPointer)
!61 = !DISubprogram(name: "new_allocator", scope: !54, file: !55, line: 82, type: !62, scopeLine: 82, flags: DIFlagPublic | DIFlagPrototyped, spFlags: 0)
!62 = !DISubroutineType(types: !63)
!63 = !{null, !60, !64}
!64 = !DIDerivedType(tag: DW_TAG_reference_type, baseType: !65, size: 64)
!65 = !DIDerivedType(tag: DW_TAG_const_type, baseType: !54)
!66 = !DISubprogram(name: "~new_allocator", scope: !54, file: !55, line: 89, type: !58, scopeLine: 89, flags: DIFlagPublic | DIFlagPrototyped, spFlags: 0)
!67 = !DISubprogram(name: "address", linkageName: "_ZNK9__gnu_cxx13new_allocatorIiE7addressERi", scope: !54, file: !55, line: 92, type: !68, scopeLine: 92, flags: DIFlagPublic | DIFlagPrototyped, spFlags: 0)
!68 = !DISubroutineType(types: !69)
!69 = !{!70, !71, !72}
!70 = !DIDerivedType(tag: DW_TAG_typedef, name: "pointer", scope: !54, file: !55, line: 62, baseType: !44)
!71 = !DIDerivedType(tag: DW_TAG_pointer_type, baseType: !65, size: 64, flags: DIFlagArtificial | DIFlagObjectPointer)
!72 = !DIDerivedType(tag: DW_TAG_typedef, name: "reference", scope: !54, file: !55, line: 64, baseType: !73)
!73 = !DIDerivedType(tag: DW_TAG_reference_type, baseType: !45, size: 64)
!74 = !DISubprogram(name: "address", linkageName: "_ZNK9__gnu_cxx13new_allocatorIiE7addressERKi", scope: !54, file: !55, line: 96, type: !75, scopeLine: 96, flags: DIFlagPublic | DIFlagPrototyped, spFlags: 0)
!75 = !DISubroutineType(types: !76)
!76 = !{!77, !71, !80}
!77 = !DIDerivedType(tag: DW_TAG_typedef, name: "const_pointer", scope: !54, file: !55, line: 63, baseType: !78)
!78 = !DIDerivedType(tag: DW_TAG_pointer_type, baseType: !79, size: 64)
!79 = !DIDerivedType(tag: DW_TAG_const_type, baseType: !45)
!80 = !DIDerivedType(tag: DW_TAG_typedef, name: "const_reference", scope: !54, file: !55, line: 65, baseType: !81)
!81 = !DIDerivedType(tag: DW_TAG_reference_type, baseType: !79, size: 64)
!82 = !DISubprogram(name: "allocate", linkageName: "_ZN9__gnu_cxx13new_allocatorIiE8allocateEmPKv", scope: !54, file: !55, line: 103, type: !83, scopeLine: 103, flags: DIFlagPublic | DIFlagPrototyped, spFlags: 0)
!83 = !DISubroutineType(types: !84)
!84 = !{!44, !60, !85, !89}
!85 = !DIDerivedType(tag: DW_TAG_typedef, name: "size_type", file: !55, line: 59, baseType: !86)
!86 = !DIDerivedType(tag: DW_TAG_typedef, name: "size_t", scope: !2, file: !87, line: 280, baseType: !88)
!87 = !DIFile(filename: "/usr/bin/../lib/gcc/x86_64-linux-gnu/11/../../../../include/x86_64-linux-gnu/c++/11/bits/c++config.h", directory: "", checksumkind: CSK_MD5, checksum: "b09addf8bea7ac9bf251a76b15f26064")
!88 = !DIBasicType(name: "unsigned long", size: 64, encoding: DW_ATE_unsigned)
!89 = !DIDerivedType(tag: DW_TAG_pointer_type, baseType: !90, size: 64)
!90 = !DIDerivedType(tag: DW_TAG_const_type, baseType: null)
!91 = !DISubprogram(name: "deallocate", linkageName: "_ZN9__gnu_cxx13new_allocatorIiE10deallocateEPim", scope: !54, file: !55, line: 132, type: !92, scopeLine: 132, flags: DIFlagPublic | DIFlagPrototyped, spFlags: 0)
!92 = !DISubroutineType(types: !93)
!93 = !{null, !60, !44, !85}
!94 = !DISubprogram(name: "max_size", linkageName: "_ZNK9__gnu_cxx13new_allocatorIiE8max_sizeEv", scope: !54, file: !55, line: 154, type: !95, scopeLine: 154, flags: DIFlagPublic | DIFlagPrototyped, spFlags: 0)
!95 = !DISubroutineType(types: !96)
!96 = !{!85, !71}
!97 = !DISubprogram(name: "_M_max_size", linkageName: "_ZNK9__gnu_cxx13new_allocatorIiE11_M_max_sizeEv", scope: !54, file: !55, line: 197, type: !95, scopeLine: 197, flags: DIFlagPrototyped, spFlags: 0)
!98 = !{!99}
!99 = !DITemplateTypeParameter(name: "_Tp", type: !45)
!100 = !DISubprogram(name: "allocator", scope: !48, file: !49, line: 156, type: !101, scopeLine: 156, flags: DIFlagPublic | DIFlagPrototyped, spFlags: 0)
!101 = !DISubroutineType(types: !102)
!102 = !{null, !103}
!103 = !DIDerivedType(tag: DW_TAG_pointer_type, baseType: !48, size: 64, flags: DIFlagArtificial | DIFlagObjectPointer)
!104 = !DISubprogram(name: "allocator", scope: !48, file: !49, line: 159, type: !105, scopeLine: 159, flags: DIFlagPublic | DIFlagPrototyped, spFlags: 0)
!105 = !DISubroutineType(types: !106)
!106 = !{null, !103, !107}
!107 = !DIDerivedType(tag: DW_TAG_reference_type, baseType: !108, size: 64)
!108 = !DIDerivedType(tag: DW_TAG_const_type, baseType: !48)
!109 = !DISubprogram(name: "operator=", linkageName: "_ZNSaIiEaSERKS_", scope: !48, file: !49, line: 164, type: !110, scopeLine: 164, flags: DIFlagPublic | DIFlagPrototyped, spFlags: 0)
!110 = !DISubroutineType(types: !111)
!111 = !{!112, !103, !107}
!112 = !DIDerivedType(tag: DW_TAG_reference_type, baseType: !48, size: 64)
!113 = !DISubprogram(name: "~allocator", scope: !48, file: !49, line: 174, type: !101, scopeLine: 174, flags: DIFlagPublic | DIFlagPrototyped, spFlags: 0)
!114 = !DIDerivedType(tag: DW_TAG_typedef, name: "size_type", file: !38, line: 435, baseType: !86)
!115 = !DISubprogram(name: "allocate", linkageName: "_ZNSt16allocator_traitsISaIiEE8allocateERS0_mPKv", scope: !37, file: !38, line: 477, type: !116, scopeLine: 477, flags: DIFlagPrototyped | DIFlagStaticMember, spFlags: 0)
!116 = !DISubroutineType(types: !117)
!117 = !{!43, !46, !114, !118}
!118 = !DIDerivedType(tag: DW_TAG_typedef, name: "const_void_pointer", file: !38, line: 429, baseType: !89)
!119 = !DISubprogram(name: "deallocate", linkageName: "_ZNSt16allocator_traitsISaIiEE10deallocateERS0_Pim", scope: !37, file: !38, line: 495, type: !120, scopeLine: 495, flags: DIFlagPrototyped | DIFlagStaticMember, spFlags: 0)
!120 = !DISubroutineType(types: !121)
!121 = !{null, !46, !43, !114}
!122 = !DISubprogram(name: "max_size", linkageName: "_ZNSt16allocator_traitsISaIiEE8max_sizeERKS0_", scope: !37, file: !38, line: 547, type: !123, scopeLine: 547, flags: DIFlagPrototyped | DIFlagStaticMember, spFlags: 0)
!123 = !DISubroutineType(types: !124)
!124 = !{!125, !126}
!125 = !DIDerivedType(tag: DW_TAG_typedef, name: "size_type", scope: !37, file: !38, line: 435, baseType: !86)
!126 = !DIDerivedType(tag: DW_TAG_reference_type, baseType: !127, size: 64)
!127 = !DIDerivedType(tag: DW_TAG_const_type, baseType: !47)
!128 = !DISubprogram(name: "select_on_container_copy_construction", linkageName: "_ZNSt16allocator_traitsISaIiEE37select_on_container_copy_constructionERKS0_", scope: !37, file: !38, line: 562, type: !129, scopeLine: 562, flags: DIFlagPrototyped | DIFlagStaticMember, spFlags: 0)
!129 = !DISubroutineType(types: !130)
!130 = !{!47, !126}
!131 = !{!132}
!132 = !DITemplateTypeParameter(name: "_Alloc", type: !48)
!133 = !DISubprogram(name: "_S_select_on_copy", linkageName: "_ZN9__gnu_cxx14__alloc_traitsISaIiEiE17_S_select_on_copyERKS1_", scope: !34, file: !32, line: 97, type: !134, scopeLine: 97, flags: DIFlagPrototyped | DIFlagStaticMember, spFlags: 0)
!134 = !DISubroutineType(types: !135)
!135 = !{!48, !107}
!136 = !DISubprogram(name: "_S_on_swap", linkageName: "_ZN9__gnu_cxx14__alloc_traitsISaIiEiE10_S_on_swapERS1_S3_", scope: !34, file: !32, line: 100, type: !137, scopeLine: 100, flags: DIFlagPrototyped | DIFlagStaticMember, spFlags: 0)
!137 = !DISubroutineType(types: !138)
!138 = !{null, !112, !112}
!139 = !DISubprogram(name: "_S_propagate_on_copy_assign", linkageName: "_ZN9__gnu_cxx14__alloc_traitsISaIiEiE27_S_propagate_on_copy_assignEv", scope: !34, file: !32, line: 103, type: !140, scopeLine: 103, flags: DIFlagPrototyped | DIFlagStaticMember, spFlags: 0)
!140 = !DISubroutineType(types: !141)
!141 = !{!142}
!142 = !DIBasicType(name: "bool", size: 8, encoding: DW_ATE_boolean)
!143 = !DISubprogram(name: "_S_propagate_on_move_assign", linkageName: "_ZN9__gnu_cxx14__alloc_traitsISaIiEiE27_S_propagate_on_move_assignEv", scope: !34, file: !32, line: 106, type: !140, scopeLine: 106, flags: DIFlagPrototyped | DIFlagStaticMember, spFlags: 0)
!144 = !DISubprogram(name: "_S_propagate_on_swap", linkageName: "_ZN9__gnu_cxx14__alloc_traitsISaIiEiE20_S_propagate_on_swapEv", scope: !34, file: !32, line: 109, type: !140, scopeLine: 109, flags: DIFlagPrototyped | DIFlagStaticMember, spFlags: 0)
!145 = !DISubprogram(name: "_S_always_equal", linkageName: "_ZN9__gnu_cxx14__alloc_traitsISaIiEiE15_S_always_equalEv", scope: !34, file: !32, line: 112, type: !140, scopeLine: 112, flags: DIFlagPrototyped | DIFlagStaticMember, spFlags: 0)
!146 = !DISubprogram(name: "_S_nothrow_move", linkageName: "_ZN9__gnu_cxx14__alloc_traitsISaIiEiE15_S_nothrow_moveEv", scope: !34, file: !32, line: 115, type: !140, scopeLine: 115, flags: DIFlagPrototyped | DIFlagStaticMember, spFlags: 0)
!147 = !{!132, !148}
!148 = !DITemplateTypeParameter(type: !45)
!149 = !{}
!150 = !DIDerivedType(tag: DW_TAG_typedef, name: "rebind_alloc<int>", scope: !37, file: !38, line: 450, baseType: !48)
!151 = !DIDerivedType(tag: DW_TAG_inheritance, scope: !27, baseType: !152, extraData: i32 0)
!152 = distinct !DICompositeType(tag: DW_TAG_structure_type, name: "_Vector_impl_data", scope: !24, file: !20, line: 91, size: 192, flags: DIFlagTypePassByReference | DIFlagNonTrivial, elements: !153, identifier: "_ZTSNSt12_Vector_baseIiSaIiEE17_Vector_impl_dataE")
!153 = !{!154, !157, !158, !159, !163, !167, !172}
!154 = !DIDerivedType(tag: DW_TAG_member, name: "_M_start", scope: !152, file: !20, line: 93, baseType: !155, size: 64)
!155 = !DIDerivedType(tag: DW_TAG_typedef, name: "pointer", scope: !24, file: !20, line: 89, baseType: !156)
!156 = !DIDerivedType(tag: DW_TAG_typedef, name: "pointer", scope: !34, file: !32, line: 57, baseType: !43)
!157 = !DIDerivedType(tag: DW_TAG_member, name: "_M_finish", scope: !152, file: !20, line: 94, baseType: !155, size: 64, offset: 64)
!158 = !DIDerivedType(tag: DW_TAG_member, name: "_M_end_of_storage", scope: !152, file: !20, line: 95, baseType: !155, size: 64, offset: 128)
!159 = !DISubprogram(name: "_Vector_impl_data", scope: !152, file: !20, line: 97, type: !160, scopeLine: 97, flags: DIFlagPrototyped, spFlags: 0)
!160 = !DISubroutineType(types: !161)
!161 = !{null, !162}
!162 = !DIDerivedType(tag: DW_TAG_pointer_type, baseType: !152, size: 64, flags: DIFlagArtificial | DIFlagObjectPointer)
!163 = !DISubprogram(name: "_Vector_impl_data", scope: !152, file: !20, line: 102, type: !164, scopeLine: 102, flags: DIFlagPrototyped, spFlags: 0)
!164 = !DISubroutineType(types: !165)
!165 = !{null, !162, !166}
!166 = !DIDerivedType(tag: DW_TAG_rvalue_reference_type, baseType: !152, size: 64)
!167 = !DISubprogram(name: "_M_copy_data", linkageName: "_ZNSt12_Vector_baseIiSaIiEE17_Vector_impl_data12_M_copy_dataERKS2_", scope: !152, file: !20, line: 109, type: !168, scopeLine: 109, flags: DIFlagPrototyped, spFlags: 0)
!168 = !DISubroutineType(types: !169)
!169 = !{null, !162, !170}
!170 = !DIDerivedType(tag: DW_TAG_reference_type, baseType: !171, size: 64)
!171 = !DIDerivedType(tag: DW_TAG_const_type, baseType: !152)
!172 = !DISubprogram(name: "_M_swap_data", linkageName: "_ZNSt12_Vector_baseIiSaIiEE17_Vector_impl_data12_M_swap_dataERS2_", scope: !152, file: !20, line: 117, type: !173, scopeLine: 117, flags: DIFlagPrototyped, spFlags: 0)
!173 = !DISubroutineType(types: !174)
!174 = !{null, !162, !175}
!175 = !DIDerivedType(tag: DW_TAG_reference_type, baseType: !152, size: 64)
!176 = !DISubprogram(name: "_Vector_impl", scope: !27, file: !20, line: 131, type: !177, scopeLine: 131, flags: DIFlagPrototyped, spFlags: 0)
!177 = !DISubroutineType(types: !178)
!178 = !{null, !179}
!179 = !DIDerivedType(tag: DW_TAG_pointer_type, baseType: !27, size: 64, flags: DIFlagArtificial | DIFlagObjectPointer)
!180 = !DISubprogram(name: "_Vector_impl", scope: !27, file: !20, line: 136, type: !181, scopeLine: 136, flags: DIFlagPrototyped, spFlags: 0)
!181 = !DISubroutineType(types: !182)
!182 = !{null, !179, !183}
!183 = !DIDerivedType(tag: DW_TAG_reference_type, baseType: !184, size: 64)
!184 = !DIDerivedType(tag: DW_TAG_const_type, baseType: !30)
!185 = !DISubprogram(name: "_Vector_impl", scope: !27, file: !20, line: 143, type: !186, scopeLine: 143, flags: DIFlagPrototyped, spFlags: 0)
!186 = !DISubroutineType(types: !187)
!187 = !{null, !179, !188}
!188 = !DIDerivedType(tag: DW_TAG_rvalue_reference_type, baseType: !27, size: 64)
!189 = !DISubprogram(name: "_Vector_impl", scope: !27, file: !20, line: 147, type: !190, scopeLine: 147, flags: DIFlagPrototyped, spFlags: 0)
!190 = !DISubroutineType(types: !191)
!191 = !{null, !179, !192}
!192 = !DIDerivedType(tag: DW_TAG_rvalue_reference_type, baseType: !30, size: 64)
!193 = !DISubprogram(name: "_Vector_impl", scope: !27, file: !20, line: 151, type: !194, scopeLine: 151, flags: DIFlagPrototyped, spFlags: 0)
!194 = !DISubroutineType(types: !195)
!195 = !{null, !179, !192, !188}
!196 = !DISubprogram(name: "_M_get_Tp_allocator", linkageName: "_ZNSt12_Vector_baseIiSaIiEE19_M_get_Tp_allocatorEv", scope: !24, file: !20, line: 276, type: !197, scopeLine: 276, flags: DIFlagPrototyped, spFlags: 0)
!197 = !DISubroutineType(types: !198)
!198 = !{!199, !200}
!199 = !DIDerivedType(tag: DW_TAG_reference_type, baseType: !30, size: 64)
!200 = !DIDerivedType(tag: DW_TAG_pointer_type, baseType: !24, size: 64, flags: DIFlagArtificial | DIFlagObjectPointer)
!201 = !DISubprogram(name: "_M_get_Tp_allocator", linkageName: "_ZNKSt12_Vector_baseIiSaIiEE19_M_get_Tp_allocatorEv", scope: !24, file: !20, line: 280, type: !202, scopeLine: 280, flags: DIFlagPrototyped, spFlags: 0)
!202 = !DISubroutineType(types: !203)
!203 = !{!183, !204}
!204 = !DIDerivedType(tag: DW_TAG_pointer_type, baseType: !205, size: 64, flags: DIFlagArtificial | DIFlagObjectPointer)
!205 = !DIDerivedType(tag: DW_TAG_const_type, baseType: !24)
!206 = !DISubprogram(name: "get_allocator", linkageName: "_ZNKSt12_Vector_baseIiSaIiEE13get_allocatorEv", scope: !24, file: !20, line: 284, type: !207, scopeLine: 284, flags: DIFlagPrototyped, spFlags: 0)
!207 = !DISubroutineType(types: !208)
!208 = !{!209, !204}
!209 = !DIDerivedType(tag: DW_TAG_typedef, name: "allocator_type", scope: !24, file: !20, line: 273, baseType: !48)
!210 = !DISubprogram(name: "_Vector_base", scope: !24, file: !20, line: 288, type: !211, scopeLine: 288, flags: DIFlagPrototyped, spFlags: 0)
!211 = !DISubroutineType(types: !212)
!212 = !{null, !200}
!213 = !DISubprogram(name: "_Vector_base", scope: !24, file: !20, line: 293, type: !214, scopeLine: 293, flags: DIFlagPrototyped, spFlags: 0)
!214 = !DISubroutineType(types: !215)
!215 = !{null, !200, !216}
!216 = !DIDerivedType(tag: DW_TAG_reference_type, baseType: !217, size: 64)
!217 = !DIDerivedType(tag: DW_TAG_const_type, baseType: !209)
!218 = !DISubprogram(name: "_Vector_base", scope: !24, file: !20, line: 298, type: !219, scopeLine: 298, flags: DIFlagPrototyped, spFlags: 0)
!219 = !DISubroutineType(types: !220)
!220 = !{null, !200, !86}
!221 = !DISubprogram(name: "_Vector_base", scope: !24, file: !20, line: 303, type: !222, scopeLine: 303, flags: DIFlagPrototyped, spFlags: 0)
!222 = !DISubroutineType(types: !223)
!223 = !{null, !200, !86, !216}
!224 = !DISubprogram(name: "_Vector_base", scope: !24, file: !20, line: 308, type: !225, scopeLine: 308, flags: DIFlagPrototyped, spFlags: 0)
!225 = !DISubroutineType(types: !226)
!226 = !{null, !200, !227}
!227 = !DIDerivedType(tag: DW_TAG_rvalue_reference_type, baseType: !24, size: 64)
!228 = !DISubprogram(name: "_Vector_base", scope: !24, file: !20, line: 312, type: !229, scopeLine: 312, flags: DIFlagPrototyped, spFlags: 0)
!229 = !DISubroutineType(types: !230)
!230 = !{null, !200, !192}
!231 = !DISubprogram(name: "_Vector_base", scope: !24, file: !20, line: 315, type: !232, scopeLine: 315, flags: DIFlagPrototyped, spFlags: 0)
!232 = !DISubroutineType(types: !233)
!233 = !{null, !200, !227, !216}
!234 = !DISubprogram(name: "_Vector_base", scope: !24, file: !20, line: 328, type: !235, scopeLine: 328, flags: DIFlagPrototyped, spFlags: 0)
!235 = !DISubroutineType(types: !236)
!236 = !{null, !200, !216, !227}
!237 = !DISubprogram(name: "~_Vector_base", scope: !24, file: !20, line: 333, type: !211, scopeLine: 333, flags: DIFlagPrototyped, spFlags: 0)
!238 = !DISubprogram(name: "_M_allocate", linkageName: "_ZNSt12_Vector_baseIiSaIiEE11_M_allocateEm", scope: !24, file: !20, line: 343, type: !239, scopeLine: 343, flags: DIFlagPrototyped, spFlags: 0)
!239 = !DISubroutineType(types: !240)
!240 = !{!155, !200, !86}
!241 = !DISubprogram(name: "_M_deallocate", linkageName: "_ZNSt12_Vector_baseIiSaIiEE13_M_deallocateEPim", scope: !24, file: !20, line: 350, type: !242, scopeLine: 350, flags: DIFlagPrototyped, spFlags: 0)
!242 = !DISubroutineType(types: !243)
!243 = !{null, !200, !155, !86}
!244 = !DISubprogram(name: "_M_create_storage", linkageName: "_ZNSt12_Vector_baseIiSaIiEE17_M_create_storageEm", scope: !24, file: !20, line: 359, type: !219, scopeLine: 359, flags: DIFlagProtected | DIFlagPrototyped, spFlags: 0)
!245 = !{!99, !132}
!246 = !DISubprogram(name: "_S_nothrow_relocate", linkageName: "_ZNSt6vectorIiSaIiEE19_S_nothrow_relocateESt17integral_constantIbLb1EE", scope: !21, file: !20, line: 431, type: !247, scopeLine: 431, flags: DIFlagPrototyped | DIFlagStaticMember, spFlags: 0)
!247 = !DISubroutineType(types: !248)
!248 = !{!142, !249}
!249 = !DIDerivedType(tag: DW_TAG_typedef, name: "true_type", scope: !2, file: !250, line: 83, baseType: !251)
!250 = !DIFile(filename: "/usr/bin/../lib/gcc/x86_64-linux-gnu/11/../../../../include/c++/11/type_traits", directory: "")
!251 = distinct !DICompositeType(tag: DW_TAG_structure_type, name: "integral_constant<bool, true>", scope: !2, file: !250, line: 65, size: 8, flags: DIFlagTypePassByValue, elements: !252, templateParams: !262, identifier: "_ZTSSt17integral_constantIbLb1EE")
!252 = !{!253, !255, !261}
!253 = !DIDerivedType(tag: DW_TAG_member, name: "value", scope: !251, file: !250, line: 67, baseType: !254, flags: DIFlagStaticMember, extraData: i1 true)
!254 = !DIDerivedType(tag: DW_TAG_const_type, baseType: !142)
!255 = !DISubprogram(name: "operator bool", linkageName: "_ZNKSt17integral_constantIbLb1EEcvbEv", scope: !251, file: !250, line: 70, type: !256, scopeLine: 70, flags: DIFlagPrototyped, spFlags: 0)
!256 = !DISubroutineType(types: !257)
!257 = !{!258, !259}
!258 = !DIDerivedType(tag: DW_TAG_typedef, name: "value_type", scope: !251, file: !250, line: 68, baseType: !142)
!259 = !DIDerivedType(tag: DW_TAG_pointer_type, baseType: !260, size: 64, flags: DIFlagArtificial | DIFlagObjectPointer)
!260 = !DIDerivedType(tag: DW_TAG_const_type, baseType: !251)
!261 = !DISubprogram(name: "operator()", linkageName: "_ZNKSt17integral_constantIbLb1EEclEv", scope: !251, file: !250, line: 75, type: !256, scopeLine: 75, flags: DIFlagPrototyped, spFlags: 0)
!262 = !{!263, !264}
!263 = !DITemplateTypeParameter(name: "_Tp", type: !142)
!264 = !DITemplateValueParameter(name: "__v", type: !142, value: i8 1)
!265 = !DISubprogram(name: "_S_nothrow_relocate", linkageName: "_ZNSt6vectorIiSaIiEE19_S_nothrow_relocateESt17integral_constantIbLb0EE", scope: !21, file: !20, line: 440, type: !266, scopeLine: 440, flags: DIFlagPrototyped | DIFlagStaticMember, spFlags: 0)
!266 = !DISubroutineType(types: !267)
!267 = !{!142, !268}
!268 = !DIDerivedType(tag: DW_TAG_typedef, name: "false_type", scope: !2, file: !250, line: 86, baseType: !269)
!269 = distinct !DICompositeType(tag: DW_TAG_structure_type, name: "integral_constant<bool, false>", scope: !2, file: !250, line: 65, size: 8, flags: DIFlagTypePassByValue, elements: !270, templateParams: !279, identifier: "_ZTSSt17integral_constantIbLb0EE")
!270 = !{!271, !272, !278}
!271 = !DIDerivedType(tag: DW_TAG_member, name: "value", scope: !269, file: !250, line: 67, baseType: !254, flags: DIFlagStaticMember, extraData: i1 false)
!272 = !DISubprogram(name: "operator bool", linkageName: "_ZNKSt17integral_constantIbLb0EEcvbEv", scope: !269, file: !250, line: 70, type: !273, scopeLine: 70, flags: DIFlagPrototyped, spFlags: 0)
!273 = !DISubroutineType(types: !274)
!274 = !{!275, !276}
!275 = !DIDerivedType(tag: DW_TAG_typedef, name: "value_type", scope: !269, file: !250, line: 68, baseType: !142)
!276 = !DIDerivedType(tag: DW_TAG_pointer_type, baseType: !277, size: 64, flags: DIFlagArtificial | DIFlagObjectPointer)
!277 = !DIDerivedType(tag: DW_TAG_const_type, baseType: !269)
!278 = !DISubprogram(name: "operator()", linkageName: "_ZNKSt17integral_constantIbLb0EEclEv", scope: !269, file: !250, line: 75, type: !273, scopeLine: 75, flags: DIFlagPrototyped, spFlags: 0)
!279 = !{!263, !280}
!280 = !DITemplateValueParameter(name: "__v", type: !142, value: i8 0)
!281 = !DISubprogram(name: "_S_use_relocate", linkageName: "_ZNSt6vectorIiSaIiEE15_S_use_relocateEv", scope: !21, file: !20, line: 444, type: !140, scopeLine: 444, flags: DIFlagPrototyped | DIFlagStaticMember, spFlags: 0)
!282 = !DISubprogram(name: "_S_do_relocate", linkageName: "_ZNSt6vectorIiSaIiEE14_S_do_relocateEPiS2_S2_RS0_St17integral_constantIbLb1EE", scope: !21, file: !20, line: 453, type: !283, scopeLine: 453, flags: DIFlagPrototyped | DIFlagStaticMember, spFlags: 0)
!283 = !DISubroutineType(types: !284)
!284 = !{!285, !285, !285, !285, !286, !249}
!285 = !DIDerivedType(tag: DW_TAG_typedef, name: "pointer", scope: !21, file: !20, line: 415, baseType: !155)
!286 = !DIDerivedType(tag: DW_TAG_reference_type, baseType: !287, size: 64)
!287 = !DIDerivedType(tag: DW_TAG_typedef, name: "_Tp_alloc_type", scope: !21, file: !20, line: 410, baseType: !30)
!288 = !DISubprogram(name: "_S_do_relocate", linkageName: "_ZNSt6vectorIiSaIiEE14_S_do_relocateEPiS2_S2_RS0_St17integral_constantIbLb0EE", scope: !21, file: !20, line: 460, type: !289, scopeLine: 460, flags: DIFlagPrototyped | DIFlagStaticMember, spFlags: 0)
!289 = !DISubroutineType(types: !290)
!290 = !{!285, !285, !285, !285, !286, !268}
!291 = !DISubprogram(name: "_S_relocate", linkageName: "_ZNSt6vectorIiSaIiEE11_S_relocateEPiS2_S2_RS0_", scope: !21, file: !20, line: 465, type: !292, scopeLine: 465, flags: DIFlagPrototyped | DIFlagStaticMember, spFlags: 0)
!292 = !DISubroutineType(types: !293)
!293 = !{!285, !285, !285, !285, !286}
!294 = !DISubprogram(name: "vector", scope: !21, file: !20, line: 487, type: !295, scopeLine: 487, flags: DIFlagPublic | DIFlagPrototyped, spFlags: 0)
!295 = !DISubroutineType(types: !296)
!296 = !{null, !297}
!297 = !DIDerivedType(tag: DW_TAG_pointer_type, baseType: !21, size: 64, flags: DIFlagArtificial | DIFlagObjectPointer)
!298 = !DISubprogram(name: "vector", scope: !21, file: !20, line: 497, type: !299, scopeLine: 497, flags: DIFlagPublic | DIFlagExplicit | DIFlagPrototyped, spFlags: 0)
!299 = !DISubroutineType(types: !300)
!300 = !{null, !297, !301}
!301 = !DIDerivedType(tag: DW_TAG_reference_type, baseType: !302, size: 64)
!302 = !DIDerivedType(tag: DW_TAG_const_type, baseType: !303)
!303 = !DIDerivedType(tag: DW_TAG_typedef, name: "allocator_type", scope: !21, file: !20, line: 426, baseType: !48)
!304 = !DISubprogram(name: "vector", scope: !21, file: !20, line: 510, type: !305, scopeLine: 510, flags: DIFlagPublic | DIFlagExplicit | DIFlagPrototyped, spFlags: 0)
!305 = !DISubroutineType(types: !306)
!306 = !{null, !297, !307, !301}
!307 = !DIDerivedType(tag: DW_TAG_typedef, name: "size_type", file: !20, line: 424, baseType: !86)
!308 = !DISubprogram(name: "vector", scope: !21, file: !20, line: 522, type: !309, scopeLine: 522, flags: DIFlagPublic | DIFlagPrototyped, spFlags: 0)
!309 = !DISubroutineType(types: !310)
!310 = !{null, !297, !307, !311, !301}
!311 = !DIDerivedType(tag: DW_TAG_reference_type, baseType: !312, size: 64)
!312 = !DIDerivedType(tag: DW_TAG_const_type, baseType: !313)
!313 = !DIDerivedType(tag: DW_TAG_typedef, name: "value_type", scope: !21, file: !20, line: 414, baseType: !45)
!314 = !DISubprogram(name: "vector", scope: !21, file: !20, line: 553, type: !315, scopeLine: 553, flags: DIFlagPublic | DIFlagPrototyped, spFlags: 0)
!315 = !DISubroutineType(types: !316)
!316 = !{null, !297, !317}
!317 = !DIDerivedType(tag: DW_TAG_reference_type, baseType: !318, size: 64)
!318 = !DIDerivedType(tag: DW_TAG_const_type, baseType: !21)
!319 = !DISubprogram(name: "vector", scope: !21, file: !20, line: 572, type: !320, scopeLine: 572, flags: DIFlagPublic | DIFlagPrototyped, spFlags: 0)
!320 = !DISubroutineType(types: !321)
!321 = !{null, !297, !322}
!322 = !DIDerivedType(tag: DW_TAG_rvalue_reference_type, baseType: !21, size: 64)
!323 = !DISubprogram(name: "vector", scope: !21, file: !20, line: 575, type: !324, scopeLine: 575, flags: DIFlagPublic | DIFlagPrototyped, spFlags: 0)
!324 = !DISubroutineType(types: !325)
!325 = !{null, !297, !317, !301}
!326 = !DISubprogram(name: "vector", scope: !21, file: !20, line: 585, type: !327, scopeLine: 585, flags: DIFlagPrototyped, spFlags: 0)
!327 = !DISubroutineType(types: !328)
!328 = !{null, !297, !322, !301, !249}
!329 = !DISubprogram(name: "vector", scope: !21, file: !20, line: 589, type: !330, scopeLine: 589, flags: DIFlagPrototyped, spFlags: 0)
!330 = !DISubroutineType(types: !331)
!331 = !{null, !297, !322, !301, !268}
!332 = !DISubprogram(name: "vector", scope: !21, file: !20, line: 607, type: !333, scopeLine: 607, flags: DIFlagPublic | DIFlagPrototyped, spFlags: 0)
!333 = !DISubroutineType(types: !334)
!334 = !{null, !297, !322, !301}
!335 = !DISubprogram(name: "vector", scope: !21, file: !20, line: 625, type: !336, scopeLine: 625, flags: DIFlagPublic | DIFlagPrototyped, spFlags: 0)
!336 = !DISubroutineType(types: !337)
!337 = !{null, !297, !338, !301}
!338 = distinct !DICompositeType(tag: DW_TAG_class_type, name: "initializer_list<int>", scope: !2, file: !339, line: 47, size: 128, flags: DIFlagTypePassByValue | DIFlagNonTrivial, elements: !340, templateParams: !362, identifier: "_ZTSSt16initializer_listIiE")
!339 = !DIFile(filename: "/usr/bin/../lib/gcc/x86_64-linux-gnu/11/../../../../include/c++/11/initializer_list", directory: "")
!340 = !{!341, !343, !345, !350, !353, !358, !361}
!341 = !DIDerivedType(tag: DW_TAG_member, name: "_M_array", scope: !338, file: !339, line: 58, baseType: !342, size: 64)
!342 = !DIDerivedType(tag: DW_TAG_typedef, name: "iterator", scope: !338, file: !339, line: 54, baseType: !78)
!343 = !DIDerivedType(tag: DW_TAG_member, name: "_M_len", scope: !338, file: !339, line: 59, baseType: !344, size: 64, offset: 64)
!344 = !DIDerivedType(tag: DW_TAG_typedef, name: "size_type", file: !339, line: 53, baseType: !86)
!345 = !DISubprogram(name: "initializer_list", scope: !338, file: !339, line: 62, type: !346, scopeLine: 62, flags: DIFlagPrototyped, spFlags: 0)
!346 = !DISubroutineType(types: !347)
!347 = !{null, !348, !349, !344}
!348 = !DIDerivedType(tag: DW_TAG_pointer_type, baseType: !338, size: 64, flags: DIFlagArtificial | DIFlagObjectPointer)
!349 = !DIDerivedType(tag: DW_TAG_typedef, name: "const_iterator", scope: !338, file: !339, line: 55, baseType: !78)
!350 = !DISubprogram(name: "initializer_list", scope: !338, file: !339, line: 66, type: !351, scopeLine: 66, flags: DIFlagPublic | DIFlagPrototyped, spFlags: 0)
!351 = !DISubroutineType(types: !352)
!352 = !{null, !348}
!353 = !DISubprogram(name: "size", linkageName: "_ZNKSt16initializer_listIiE4sizeEv", scope: !338, file: !339, line: 71, type: !354, scopeLine: 71, flags: DIFlagPublic | DIFlagPrototyped, spFlags: 0)
!354 = !DISubroutineType(types: !355)
!355 = !{!344, !356}
!356 = !DIDerivedType(tag: DW_TAG_pointer_type, baseType: !357, size: 64, flags: DIFlagArtificial | DIFlagObjectPointer)
!357 = !DIDerivedType(tag: DW_TAG_const_type, baseType: !338)
!358 = !DISubprogram(name: "begin", linkageName: "_ZNKSt16initializer_listIiE5beginEv", scope: !338, file: !339, line: 75, type: !359, scopeLine: 75, flags: DIFlagPublic | DIFlagPrototyped, spFlags: 0)
!359 = !DISubroutineType(types: !360)
!360 = !{!349, !356}
!361 = !DISubprogram(name: "end", linkageName: "_ZNKSt16initializer_listIiE3endEv", scope: !338, file: !339, line: 79, type: !359, scopeLine: 79, flags: DIFlagPublic | DIFlagPrototyped, spFlags: 0)
!362 = !{!363}
!363 = !DITemplateTypeParameter(name: "_E", type: !45)
!364 = !DISubprogram(name: "~vector", scope: !21, file: !20, line: 678, type: !295, scopeLine: 678, flags: DIFlagPublic | DIFlagPrototyped, spFlags: 0)
!365 = !DISubprogram(name: "operator=", linkageName: "_ZNSt6vectorIiSaIiEEaSERKS1_", scope: !21, file: !20, line: 695, type: !366, scopeLine: 695, flags: DIFlagPublic | DIFlagPrototyped, spFlags: 0)
!366 = !DISubroutineType(types: !367)
!367 = !{!368, !297, !317}
!368 = !DIDerivedType(tag: DW_TAG_reference_type, baseType: !21, size: 64)
!369 = !DISubprogram(name: "operator=", linkageName: "_ZNSt6vectorIiSaIiEEaSEOS1_", scope: !21, file: !20, line: 709, type: !370, scopeLine: 709, flags: DIFlagPublic | DIFlagPrototyped, spFlags: 0)
!370 = !DISubroutineType(types: !371)
!371 = !{!368, !297, !322}
!372 = !DISubprogram(name: "operator=", linkageName: "_ZNSt6vectorIiSaIiEEaSESt16initializer_listIiE", scope: !21, file: !20, line: 730, type: !373, scopeLine: 730, flags: DIFlagPublic | DIFlagPrototyped, spFlags: 0)
!373 = !DISubroutineType(types: !374)
!374 = !{!368, !297, !338}
!375 = !DISubprogram(name: "assign", linkageName: "_ZNSt6vectorIiSaIiEE6assignEmRKi", scope: !21, file: !20, line: 749, type: !376, scopeLine: 749, flags: DIFlagPublic | DIFlagPrototyped, spFlags: 0)
!376 = !DISubroutineType(types: !377)
!377 = !{null, !297, !307, !311}
!378 = !DISubprogram(name: "assign", linkageName: "_ZNSt6vectorIiSaIiEE6assignESt16initializer_listIiE", scope: !21, file: !20, line: 794, type: !379, scopeLine: 794, flags: DIFlagPublic | DIFlagPrototyped, spFlags: 0)
!379 = !DISubroutineType(types: !380)
!380 = !{null, !297, !338}
!381 = !DISubprogram(name: "begin", linkageName: "_ZNSt6vectorIiSaIiEE5beginEv", scope: !21, file: !20, line: 811, type: !382, scopeLine: 811, flags: DIFlagPublic | DIFlagPrototyped, spFlags: 0)
!382 = !DISubroutineType(types: !383)
!383 = !{!384, !297}
!384 = !DIDerivedType(tag: DW_TAG_typedef, name: "iterator", scope: !21, file: !20, line: 419, baseType: !385)
!385 = distinct !DICompositeType(tag: DW_TAG_class_type, name: "__normal_iterator<int *, std::vector<int, std::allocator<int> > >", scope: !12, file: !386, line: 1004, size: 64, flags: DIFlagTypePassByValue | DIFlagNonTrivial, elements: !387, templateParams: !441, identifier: "_ZTSN9__gnu_cxx17__normal_iteratorIPiSt6vectorIiSaIiEEEE")
!386 = !DIFile(filename: "/usr/bin/../lib/gcc/x86_64-linux-gnu/11/../../../../include/c++/11/bits/stl_iterator.h", directory: "", checksumkind: CSK_MD5, checksum: "adfbaa72dad2c93f2f61417c54c47efb")
!387 = !{!388, !389, !393, !398, !409, !414, !418, !421, !422, !423, !430, !433, !436, !437, !438}
!388 = !DIDerivedType(tag: DW_TAG_member, name: "_M_current", scope: !385, file: !386, line: 1007, baseType: !44, size: 64, flags: DIFlagProtected)
!389 = !DISubprogram(name: "__normal_iterator", scope: !385, file: !386, line: 1023, type: !390, scopeLine: 1023, flags: DIFlagPublic | DIFlagPrototyped, spFlags: 0)
!390 = !DISubroutineType(types: !391)
!391 = !{null, !392}
!392 = !DIDerivedType(tag: DW_TAG_pointer_type, baseType: !385, size: 64, flags: DIFlagArtificial | DIFlagObjectPointer)
!393 = !DISubprogram(name: "__normal_iterator", scope: !385, file: !386, line: 1027, type: !394, scopeLine: 1027, flags: DIFlagPublic | DIFlagExplicit | DIFlagPrototyped, spFlags: 0)
!394 = !DISubroutineType(types: !395)
!395 = !{null, !392, !396}
!396 = !DIDerivedType(tag: DW_TAG_reference_type, baseType: !397, size: 64)
!397 = !DIDerivedType(tag: DW_TAG_const_type, baseType: !44)
!398 = !DISubprogram(name: "operator*", linkageName: "_ZNK9__gnu_cxx17__normal_iteratorIPiSt6vectorIiSaIiEEEdeEv", scope: !385, file: !386, line: 1042, type: !399, scopeLine: 1042, flags: DIFlagPublic | DIFlagPrototyped, spFlags: 0)
!399 = !DISubroutineType(types: !400)
!400 = !{!401, !407}
!401 = !DIDerivedType(tag: DW_TAG_typedef, name: "reference", scope: !385, file: !386, line: 1016, baseType: !402)
!402 = !DIDerivedType(tag: DW_TAG_typedef, name: "reference", scope: !404, file: !403, line: 216, baseType: !73)
!403 = !DIFile(filename: "/usr/bin/../lib/gcc/x86_64-linux-gnu/11/../../../../include/c++/11/bits/stl_iterator_base_types.h", directory: "")
!404 = distinct !DICompositeType(tag: DW_TAG_structure_type, name: "iterator_traits<int *>", scope: !2, file: !403, line: 210, size: 8, flags: DIFlagTypePassByValue, elements: !149, templateParams: !405, identifier: "_ZTSSt15iterator_traitsIPiE")
!405 = !{!406}
!406 = !DITemplateTypeParameter(name: "_Iterator", type: !44)
!407 = !DIDerivedType(tag: DW_TAG_pointer_type, baseType: !408, size: 64, flags: DIFlagArtificial | DIFlagObjectPointer)
!408 = !DIDerivedType(tag: DW_TAG_const_type, baseType: !385)
!409 = !DISubprogram(name: "operator->", linkageName: "_ZNK9__gnu_cxx17__normal_iteratorIPiSt6vectorIiSaIiEEEptEv", scope: !385, file: !386, line: 1047, type: !410, scopeLine: 1047, flags: DIFlagPublic | DIFlagPrototyped, spFlags: 0)
!410 = !DISubroutineType(types: !411)
!411 = !{!412, !407}
!412 = !DIDerivedType(tag: DW_TAG_typedef, name: "pointer", scope: !385, file: !386, line: 1017, baseType: !413)
!413 = !DIDerivedType(tag: DW_TAG_typedef, name: "pointer", scope: !404, file: !403, line: 215, baseType: !44)
!414 = !DISubprogram(name: "operator++", linkageName: "_ZN9__gnu_cxx17__normal_iteratorIPiSt6vectorIiSaIiEEEppEv", scope: !385, file: !386, line: 1052, type: !415, scopeLine: 1052, flags: DIFlagPublic | DIFlagPrototyped, spFlags: 0)
!415 = !DISubroutineType(types: !416)
!416 = !{!417, !392}
!417 = !DIDerivedType(tag: DW_TAG_reference_type, baseType: !385, size: 64)
!418 = !DISubprogram(name: "operator++", linkageName: "_ZN9__gnu_cxx17__normal_iteratorIPiSt6vectorIiSaIiEEEppEi", scope: !385, file: !386, line: 1060, type: !419, scopeLine: 1060, flags: DIFlagPublic | DIFlagPrototyped, spFlags: 0)
!419 = !DISubroutineType(types: !420)
!420 = !{!385, !392, !45}
!421 = !DISubprogram(name: "operator--", linkageName: "_ZN9__gnu_cxx17__normal_iteratorIPiSt6vectorIiSaIiEEEmmEv", scope: !385, file: !386, line: 1066, type: !415, scopeLine: 1066, flags: DIFlagPublic | DIFlagPrototyped, spFlags: 0)
!422 = !DISubprogram(name: "operator--", linkageName: "_ZN9__gnu_cxx17__normal_iteratorIPiSt6vectorIiSaIiEEEmmEi", scope: !385, file: !386, line: 1074, type: !419, scopeLine: 1074, flags: DIFlagPublic | DIFlagPrototyped, spFlags: 0)
!423 = !DISubprogram(name: "operator[]", linkageName: "_ZNK9__gnu_cxx17__normal_iteratorIPiSt6vectorIiSaIiEEEixEl", scope: !385, file: !386, line: 1080, type: !424, scopeLine: 1080, flags: DIFlagPublic | DIFlagPrototyped, spFlags: 0)
!424 = !DISubroutineType(types: !425)
!425 = !{!401, !407, !426}
!426 = !DIDerivedType(tag: DW_TAG_typedef, name: "difference_type", scope: !385, file: !386, line: 1015, baseType: !427)
!427 = !DIDerivedType(tag: DW_TAG_typedef, name: "difference_type", scope: !404, file: !403, line: 214, baseType: !428)
!428 = !DIDerivedType(tag: DW_TAG_typedef, name: "ptrdiff_t", scope: !2, file: !87, line: 281, baseType: !429)
!429 = !DIBasicType(name: "long", size: 64, encoding: DW_ATE_signed)
!430 = !DISubprogram(name: "operator+=", linkageName: "_ZN9__gnu_cxx17__normal_iteratorIPiSt6vectorIiSaIiEEEpLEl", scope: !385, file: !386, line: 1085, type: !431, scopeLine: 1085, flags: DIFlagPublic | DIFlagPrototyped, spFlags: 0)
!431 = !DISubroutineType(types: !432)
!432 = !{!417, !392, !426}
!433 = !DISubprogram(name: "operator+", linkageName: "_ZNK9__gnu_cxx17__normal_iteratorIPiSt6vectorIiSaIiEEEplEl", scope: !385, file: !386, line: 1090, type: !434, scopeLine: 1090, flags: DIFlagPublic | DIFlagPrototyped, spFlags: 0)
!434 = !DISubroutineType(types: !435)
!435 = !{!385, !407, !426}
!436 = !DISubprogram(name: "operator-=", linkageName: "_ZN9__gnu_cxx17__normal_iteratorIPiSt6vectorIiSaIiEEEmIEl", scope: !385, file: !386, line: 1095, type: !431, scopeLine: 1095, flags: DIFlagPublic | DIFlagPrototyped, spFlags: 0)
!437 = !DISubprogram(name: "operator-", linkageName: "_ZNK9__gnu_cxx17__normal_iteratorIPiSt6vectorIiSaIiEEEmiEl", scope: !385, file: !386, line: 1100, type: !434, scopeLine: 1100, flags: DIFlagPublic | DIFlagPrototyped, spFlags: 0)
!438 = !DISubprogram(name: "base", linkageName: "_ZNK9__gnu_cxx17__normal_iteratorIPiSt6vectorIiSaIiEEE4baseEv", scope: !385, file: !386, line: 1105, type: !439, scopeLine: 1105, flags: DIFlagPublic | DIFlagPrototyped, spFlags: 0)
!439 = !DISubroutineType(types: !440)
!440 = !{!396, !407}
!441 = !{!406, !442}
!442 = !DITemplateTypeParameter(name: "_Container", type: !21)
!443 = !DISubprogram(name: "begin", linkageName: "_ZNKSt6vectorIiSaIiEE5beginEv", scope: !21, file: !20, line: 820, type: !444, scopeLine: 820, flags: DIFlagPublic | DIFlagPrototyped, spFlags: 0)
!444 = !DISubroutineType(types: !445)
!445 = !{!446, !500}
!446 = !DIDerivedType(tag: DW_TAG_typedef, name: "const_iterator", scope: !21, file: !20, line: 421, baseType: !447)
!447 = distinct !DICompositeType(tag: DW_TAG_class_type, name: "__normal_iterator<const int *, std::vector<int, std::allocator<int> > >", scope: !12, file: !386, line: 1004, size: 64, flags: DIFlagTypePassByValue | DIFlagNonTrivial, elements: !448, templateParams: !499, identifier: "_ZTSN9__gnu_cxx17__normal_iteratorIPKiSt6vectorIiSaIiEEEE")
!448 = !{!449, !450, !454, !459, !469, !474, !478, !481, !482, !483, !488, !491, !494, !495, !496}
!449 = !DIDerivedType(tag: DW_TAG_member, name: "_M_current", scope: !447, file: !386, line: 1007, baseType: !78, size: 64, flags: DIFlagProtected)
!450 = !DISubprogram(name: "__normal_iterator", scope: !447, file: !386, line: 1023, type: !451, scopeLine: 1023, flags: DIFlagPublic | DIFlagPrototyped, spFlags: 0)
!451 = !DISubroutineType(types: !452)
!452 = !{null, !453}
!453 = !DIDerivedType(tag: DW_TAG_pointer_type, baseType: !447, size: 64, flags: DIFlagArtificial | DIFlagObjectPointer)
!454 = !DISubprogram(name: "__normal_iterator", scope: !447, file: !386, line: 1027, type: !455, scopeLine: 1027, flags: DIFlagPublic | DIFlagExplicit | DIFlagPrototyped, spFlags: 0)
!455 = !DISubroutineType(types: !456)
!456 = !{null, !453, !457}
!457 = !DIDerivedType(tag: DW_TAG_reference_type, baseType: !458, size: 64)
!458 = !DIDerivedType(tag: DW_TAG_const_type, baseType: !78)
!459 = !DISubprogram(name: "operator*", linkageName: "_ZNK9__gnu_cxx17__normal_iteratorIPKiSt6vectorIiSaIiEEEdeEv", scope: !447, file: !386, line: 1042, type: !460, scopeLine: 1042, flags: DIFlagPublic | DIFlagPrototyped, spFlags: 0)
!460 = !DISubroutineType(types: !461)
!461 = !{!462, !467}
!462 = !DIDerivedType(tag: DW_TAG_typedef, name: "reference", scope: !447, file: !386, line: 1016, baseType: !463)
!463 = !DIDerivedType(tag: DW_TAG_typedef, name: "reference", scope: !464, file: !403, line: 227, baseType: !81)
!464 = distinct !DICompositeType(tag: DW_TAG_structure_type, name: "iterator_traits<const int *>", scope: !2, file: !403, line: 221, size: 8, flags: DIFlagTypePassByValue, elements: !149, templateParams: !465, identifier: "_ZTSSt15iterator_traitsIPKiE")
!465 = !{!466}
!466 = !DITemplateTypeParameter(name: "_Iterator", type: !78)
!467 = !DIDerivedType(tag: DW_TAG_pointer_type, baseType: !468, size: 64, flags: DIFlagArtificial | DIFlagObjectPointer)
!468 = !DIDerivedType(tag: DW_TAG_const_type, baseType: !447)
!469 = !DISubprogram(name: "operator->", linkageName: "_ZNK9__gnu_cxx17__normal_iteratorIPKiSt6vectorIiSaIiEEEptEv", scope: !447, file: !386, line: 1047, type: !470, scopeLine: 1047, flags: DIFlagPublic | DIFlagPrototyped, spFlags: 0)
!470 = !DISubroutineType(types: !471)
!471 = !{!472, !467}
!472 = !DIDerivedType(tag: DW_TAG_typedef, name: "pointer", scope: !447, file: !386, line: 1017, baseType: !473)
!473 = !DIDerivedType(tag: DW_TAG_typedef, name: "pointer", scope: !464, file: !403, line: 226, baseType: !78)
!474 = !DISubprogram(name: "operator++", linkageName: "_ZN9__gnu_cxx17__normal_iteratorIPKiSt6vectorIiSaIiEEEppEv", scope: !447, file: !386, line: 1052, type: !475, scopeLine: 1052, flags: DIFlagPublic | DIFlagPrototyped, spFlags: 0)
!475 = !DISubroutineType(types: !476)
!476 = !{!477, !453}
!477 = !DIDerivedType(tag: DW_TAG_reference_type, baseType: !447, size: 64)
!478 = !DISubprogram(name: "operator++", linkageName: "_ZN9__gnu_cxx17__normal_iteratorIPKiSt6vectorIiSaIiEEEppEi", scope: !447, file: !386, line: 1060, type: !479, scopeLine: 1060, flags: DIFlagPublic | DIFlagPrototyped, spFlags: 0)
!479 = !DISubroutineType(types: !480)
!480 = !{!447, !453, !45}
!481 = !DISubprogram(name: "operator--", linkageName: "_ZN9__gnu_cxx17__normal_iteratorIPKiSt6vectorIiSaIiEEEmmEv", scope: !447, file: !386, line: 1066, type: !475, scopeLine: 1066, flags: DIFlagPublic | DIFlagPrototyped, spFlags: 0)
!482 = !DISubprogram(name: "operator--", linkageName: "_ZN9__gnu_cxx17__normal_iteratorIPKiSt6vectorIiSaIiEEEmmEi", scope: !447, file: !386, line: 1074, type: !479, scopeLine: 1074, flags: DIFlagPublic | DIFlagPrototyped, spFlags: 0)
!483 = !DISubprogram(name: "operator[]", linkageName: "_ZNK9__gnu_cxx17__normal_iteratorIPKiSt6vectorIiSaIiEEEixEl", scope: !447, file: !386, line: 1080, type: !484, scopeLine: 1080, flags: DIFlagPublic | DIFlagPrototyped, spFlags: 0)
!484 = !DISubroutineType(types: !485)
!485 = !{!462, !467, !486}
!486 = !DIDerivedType(tag: DW_TAG_typedef, name: "difference_type", scope: !447, file: !386, line: 1015, baseType: !487)
!487 = !DIDerivedType(tag: DW_TAG_typedef, name: "difference_type", scope: !464, file: !403, line: 225, baseType: !428)
!488 = !DISubprogram(name: "operator+=", linkageName: "_ZN9__gnu_cxx17__normal_iteratorIPKiSt6vectorIiSaIiEEEpLEl", scope: !447, file: !386, line: 1085, type: !489, scopeLine: 1085, flags: DIFlagPublic | DIFlagPrototyped, spFlags: 0)
!489 = !DISubroutineType(types: !490)
!490 = !{!477, !453, !486}
!491 = !DISubprogram(name: "operator+", linkageName: "_ZNK9__gnu_cxx17__normal_iteratorIPKiSt6vectorIiSaIiEEEplEl", scope: !447, file: !386, line: 1090, type: !492, scopeLine: 1090, flags: DIFlagPublic | DIFlagPrototyped, spFlags: 0)
!492 = !DISubroutineType(types: !493)
!493 = !{!447, !467, !486}
!494 = !DISubprogram(name: "operator-=", linkageName: "_ZN9__gnu_cxx17__normal_iteratorIPKiSt6vectorIiSaIiEEEmIEl", scope: !447, file: !386, line: 1095, type: !489, scopeLine: 1095, flags: DIFlagPublic | DIFlagPrototyped, spFlags: 0)
!495 = !DISubprogram(name: "operator-", linkageName: "_ZNK9__gnu_cxx17__normal_iteratorIPKiSt6vectorIiSaIiEEEmiEl", scope: !447, file: !386, line: 1100, type: !492, scopeLine: 1100, flags: DIFlagPublic | DIFlagPrototyped, spFlags: 0)
!496 = !DISubprogram(name: "base", linkageName: "_ZNK9__gnu_cxx17__normal_iteratorIPKiSt6vectorIiSaIiEEE4baseEv", scope: !447, file: !386, line: 1105, type: !497, scopeLine: 1105, flags: DIFlagPublic | DIFlagPrototyped, spFlags: 0)
!497 = !DISubroutineType(types: !498)
!498 = !{!457, !467}
!499 = !{!466, !442}
!500 = !DIDerivedType(tag: DW_TAG_pointer_type, baseType: !318, size: 64, flags: DIFlagArtificial | DIFlagObjectPointer)
!501 = !DISubprogram(name: "end", linkageName: "_ZNSt6vectorIiSaIiEE3endEv", scope: !21, file: !20, line: 829, type: !382, scopeLine: 829, flags: DIFlagPublic | DIFlagPrototyped, spFlags: 0)
!502 = !DISubprogram(name: "end", linkageName: "_ZNKSt6vectorIiSaIiEE3endEv", scope: !21, file: !20, line: 838, type: !444, scopeLine: 838, flags: DIFlagPublic | DIFlagPrototyped, spFlags: 0)
!503 = !DISubprogram(name: "rbegin", linkageName: "_ZNSt6vectorIiSaIiEE6rbeginEv", scope: !21, file: !20, line: 847, type: !504, scopeLine: 847, flags: DIFlagPublic | DIFlagPrototyped, spFlags: 0)
!504 = !DISubroutineType(types: !505)
!505 = !{!19, !297}
!506 = !DISubprogram(name: "rbegin", linkageName: "_ZNKSt6vectorIiSaIiEE6rbeginEv", scope: !21, file: !20, line: 856, type: !507, scopeLine: 856, flags: DIFlagPublic | DIFlagPrototyped, spFlags: 0)
!507 = !DISubroutineType(types: !508)
!508 = !{!509, !500}
!509 = !DIDerivedType(tag: DW_TAG_typedef, name: "const_reverse_iterator", scope: !21, file: !20, line: 422, baseType: !510)
!510 = distinct !DICompositeType(tag: DW_TAG_class_type, name: "reverse_iterator<__gnu_cxx::__normal_iterator<const int *, std::vector<int, std::allocator<int> > > >", scope: !2, file: !386, line: 128, flags: DIFlagFwdDecl | DIFlagNonTrivial, identifier: "_ZTSSt16reverse_iteratorIN9__gnu_cxx17__normal_iteratorIPKiSt6vectorIiSaIiEEEEE")
!511 = !DISubprogram(name: "rend", linkageName: "_ZNSt6vectorIiSaIiEE4rendEv", scope: !21, file: !20, line: 865, type: !504, scopeLine: 865, flags: DIFlagPublic | DIFlagPrototyped, spFlags: 0)
!512 = !DISubprogram(name: "rend", linkageName: "_ZNKSt6vectorIiSaIiEE4rendEv", scope: !21, file: !20, line: 874, type: !507, scopeLine: 874, flags: DIFlagPublic | DIFlagPrototyped, spFlags: 0)
!513 = !DISubprogram(name: "cbegin", linkageName: "_ZNKSt6vectorIiSaIiEE6cbeginEv", scope: !21, file: !20, line: 884, type: !444, scopeLine: 884, flags: DIFlagPublic | DIFlagPrototyped, spFlags: 0)
!514 = !DISubprogram(name: "cend", linkageName: "_ZNKSt6vectorIiSaIiEE4cendEv", scope: !21, file: !20, line: 893, type: !444, scopeLine: 893, flags: DIFlagPublic | DIFlagPrototyped, spFlags: 0)
!515 = !DISubprogram(name: "crbegin", linkageName: "_ZNKSt6vectorIiSaIiEE7crbeginEv", scope: !21, file: !20, line: 902, type: !507, scopeLine: 902, flags: DIFlagPublic | DIFlagPrototyped, spFlags: 0)
!516 = !DISubprogram(name: "crend", linkageName: "_ZNKSt6vectorIiSaIiEE5crendEv", scope: !21, file: !20, line: 911, type: !507, scopeLine: 911, flags: DIFlagPublic | DIFlagPrototyped, spFlags: 0)
!517 = !DISubprogram(name: "size", linkageName: "_ZNKSt6vectorIiSaIiEE4sizeEv", scope: !21, file: !20, line: 918, type: !518, scopeLine: 918, flags: DIFlagPublic | DIFlagPrototyped, spFlags: 0)
!518 = !DISubroutineType(types: !519)
!519 = !{!307, !500}
!520 = !DISubprogram(name: "max_size", linkageName: "_ZNKSt6vectorIiSaIiEE8max_sizeEv", scope: !21, file: !20, line: 923, type: !518, scopeLine: 923, flags: DIFlagPublic | DIFlagPrototyped, spFlags: 0)
!521 = !DISubprogram(name: "resize", linkageName: "_ZNSt6vectorIiSaIiEE6resizeEm", scope: !21, file: !20, line: 937, type: !522, scopeLine: 937, flags: DIFlagPublic | DIFlagPrototyped, spFlags: 0)
!522 = !DISubroutineType(types: !523)
!523 = !{null, !297, !307}
!524 = !DISubprogram(name: "resize", linkageName: "_ZNSt6vectorIiSaIiEE6resizeEmRKi", scope: !21, file: !20, line: 957, type: !376, scopeLine: 957, flags: DIFlagPublic | DIFlagPrototyped, spFlags: 0)
!525 = !DISubprogram(name: "shrink_to_fit", linkageName: "_ZNSt6vectorIiSaIiEE13shrink_to_fitEv", scope: !21, file: !20, line: 989, type: !295, scopeLine: 989, flags: DIFlagPublic | DIFlagPrototyped, spFlags: 0)
!526 = !DISubprogram(name: "capacity", linkageName: "_ZNKSt6vectorIiSaIiEE8capacityEv", scope: !21, file: !20, line: 998, type: !518, scopeLine: 998, flags: DIFlagPublic | DIFlagPrototyped, spFlags: 0)
!527 = !DISubprogram(name: "empty", linkageName: "_ZNKSt6vectorIiSaIiEE5emptyEv", scope: !21, file: !20, line: 1007, type: !528, scopeLine: 1007, flags: DIFlagPublic | DIFlagPrototyped, spFlags: 0)
!528 = !DISubroutineType(types: !529)
!529 = !{!142, !500}
!530 = !DISubprogram(name: "reserve", linkageName: "_ZNSt6vectorIiSaIiEE7reserveEm", scope: !21, file: !20, line: 1028, type: !522, scopeLine: 1028, flags: DIFlagPublic | DIFlagPrototyped, spFlags: 0)
!531 = !DISubprogram(name: "operator[]", linkageName: "_ZNSt6vectorIiSaIiEEixEm", scope: !21, file: !20, line: 1043, type: !532, scopeLine: 1043, flags: DIFlagPublic | DIFlagPrototyped, spFlags: 0)
!532 = !DISubroutineType(types: !533)
!533 = !{!534, !297, !307}
!534 = !DIDerivedType(tag: DW_TAG_typedef, name: "reference", scope: !21, file: !20, line: 417, baseType: !535)
!535 = !DIDerivedType(tag: DW_TAG_typedef, name: "reference", scope: !34, file: !32, line: 62, baseType: !536)
!536 = !DIDerivedType(tag: DW_TAG_reference_type, baseType: !537, size: 64)
!537 = !DIDerivedType(tag: DW_TAG_typedef, name: "value_type", scope: !34, file: !32, line: 56, baseType: !538)
!538 = !DIDerivedType(tag: DW_TAG_typedef, name: "value_type", scope: !37, file: !38, line: 417, baseType: !45)
!539 = !DISubprogram(name: "operator[]", linkageName: "_ZNKSt6vectorIiSaIiEEixEm", scope: !21, file: !20, line: 1061, type: !540, scopeLine: 1061, flags: DIFlagPublic | DIFlagPrototyped, spFlags: 0)
!540 = !DISubroutineType(types: !541)
!541 = !{!542, !500, !307}
!542 = !DIDerivedType(tag: DW_TAG_typedef, name: "const_reference", scope: !21, file: !20, line: 418, baseType: !543)
!543 = !DIDerivedType(tag: DW_TAG_typedef, name: "const_reference", scope: !34, file: !32, line: 63, baseType: !544)
!544 = !DIDerivedType(tag: DW_TAG_reference_type, baseType: !545, size: 64)
!545 = !DIDerivedType(tag: DW_TAG_const_type, baseType: !537)
!546 = !DISubprogram(name: "_M_range_check", linkageName: "_ZNKSt6vectorIiSaIiEE14_M_range_checkEm", scope: !21, file: !20, line: 1070, type: !547, scopeLine: 1070, flags: DIFlagProtected | DIFlagPrototyped, spFlags: 0)
!547 = !DISubroutineType(types: !548)
!548 = !{null, !500, !307}
!549 = !DISubprogram(name: "at", linkageName: "_ZNSt6vectorIiSaIiEE2atEm", scope: !21, file: !20, line: 1092, type: !532, scopeLine: 1092, flags: DIFlagPublic | DIFlagPrototyped, spFlags: 0)
!550 = !DISubprogram(name: "at", linkageName: "_ZNKSt6vectorIiSaIiEE2atEm", scope: !21, file: !20, line: 1110, type: !540, scopeLine: 1110, flags: DIFlagPublic | DIFlagPrototyped, spFlags: 0)
